ccopy_reg
_reconstructor
p0
(cnltk.tag.sequential
BigramTagger
p1
c__builtin__
object
p2
Ntp3
Rp4
(dp5
S'_taggers'
p6
(lp7
g4
ag0
(cnltk.tag.sequential
UnigramTagger
p8
g2
Ntp9
Rp10
(dp11
g6
(lp12
g10
ag0
(cnltk.tag.sequential
DefaultTagger
p13
g2
Ntp14
Rp15
(dp16
g6
(lp17
g15
asS'_tag'
p18
S'NOUN'
p19
sbasS'_n'
p20
I1
sS'_context_to_tag'
p21
(dp22
VElevated
p23
VVERB
p24
sVnarcotic
p25
VADJ
p26
sVfour
p27
VNUM
p28
sVUntil
p29
VADP
p30
sVpack
p31
VVERB
p32
sVmarching
p33
VVERB
p34
sVincrease
p35
VNOUN
p36
sVeligible
p37
g26
sVall-county
p38
g26
sVWestern
p39
VADJ
p40
sV1959-60
p41
g28
sVsinking
p42
g34
sV1,119
p43
g28
sVFamed
p44
g26
sVregional
p45
g26
sVCharitable
p46
g26
sVleisurely
p47
VADV
p48
sVOld
p49
g40
sVbringing
p50
g34
sVwooden
p51
g26
sVdebuting
p52
g34
sVcommented
p53
VVERB
p54
sVtired
p55
g54
sV271
p56
g28
sVsecond
p57
VADJ
p58
sV273
p59
g28
sVInitially
p60
g48
sVcontributed
p61
g54
sVdesigning
p62
g34
sVincreasing
p63
g34
sVPresidential
p64
g40
sVhere
p65
g48
sVreported
p66
g54
sVaffiliated
p67
VVERB
p68
sVPrecise
p69
VADJ
p70
sVcyclical
p71
g26
sVkids
p72
VNOUN
p73
sVelaborate
p74
g32
sVclimbed
p75
g54
sVreports
p76
g73
sVmilitary
p77
g26
sVgolden
p78
g70
sVdivide
p79
g32
sVexplained
p80
g54
sVThree
p81
VNUM
p82
sVreplace
p83
g32
sVbrought
p84
g54
sVspoke
p85
g54
sVAdmitting
p86
g34
sVAnticipated
p87
g68
sVoccupying
p88
g34
sVtherefore
p89
g48
sVstrike
p90
g36
sVheralded
p91
g68
sVuntil
p92
g30
sVsuccessful
p93
g26
sVbrings
p94
VVERB
p95
sVwhirling
p96
g34
sV99
p97
VNUM
p98
sVmenaced
p99
g68
sVtying
p100
g34
sV90
p101
g28
sV93
p102
g28
sVhold
p103
g32
sV95
p104
g28
sV96
p105
g28
sVlocked
p106
g68
sVfamed
p107
g26
sVLe
p108
VX
p109
sVLa
p110
g109
sVorganized
p111
g68
sVreviewing
p112
g34
sVwant
p113
g32
sVcounseling
p114
g34
sVabsolute
p115
g26
sVpreferably
p116
g48
sVhoc
p117
g109
sVcomplaining
p118
g34
sVdrying
p119
g34
sVfeature
p120
g32
sVhow
p121
VADV
p122
sVhot
p123
g26
sVHe'll
p124
VPRT
p125
sVA
p126
VDET
p127
sVoutlawed
p128
g68
sVmodest
p129
g70
sVdestined
p130
g68
sVfourteen-team
p131
g26
sVsentencing
p132
g34
sVeffective
p133
g26
sVwins
p134
g95
sVromped
p135
g54
sVpresiding
p136
g34
sV18th
p137
g58
sV4-7/8
p138
g28
sVAnother
p139
VDET
p140
sVkeeps
p141
g95
sVdemocratic
p142
g26
sVwind
p143
g32
sVEven
p144
g48
sVwelcomed
p145
g68
sVdreamed
p146
g54
sVvary
p147
g32
sVHis
p148
VDET
p149
sVfit
p150
g32
sVstriking
p151
g34
sVhidden
p152
g68
sVcounty-wide
p153
g26
sVvirtually
p154
g48
sVinterrupt
p155
g32
sVP.m.
p156
g48
sVundeveloped
p157
g26
sVsilver
p158
g36
sVglutted
p159
g68
sVrepresents
p160
g95
sV4-year-old
p161
g26
sVSuperior
p162
g40
sVpreceded
p163
g68
sVfinancial
p164
g26
sVreputedly
p165
g48
sVfinger-paint
p166
g32
sVcontracting
p167
g34
sVwe'd
p168
VPRT
p169
sVsubstantially
p170
g48
sVwhip
p171
g32
sVtwo-and-a-half-mile
p172
g26
sVten-concert
p173
g26
sV5847
p174
g98
sVencourage
p175
g32
sVassured
p176
g54
sVthreatened
p177
g54
sV3-to-3
p178
g28
sV3-run
p179
g26
sVestimate
p180
g36
sVknit
p181
g68
sVenormous
p182
g26
sVbirdie
p183
g36
sV24-inch
p184
g26
sVshipped
p185
g54
sVspeedy
p186
g26
sVcompeted
p187
g54
sVHuman
p188
g40
sVreserving
p189
g34
sVrepealed
p190
g68
sVDue
p191
g70
sVwash
p192
g32
sV174
p193
g28
sVneeded
p194
g68
sVmaster
p195
g36
sVlisted
p196
g54
sVbitter
p197
g26
sVranging
p198
g34
sVlisten
p199
g32
sVpredictably
p200
g48
sVshowed
p201
g54
sVelegant
p202
g26
sVwalloped
p203
g54
sVproject
p204
g36
sVidle
p205
g26
sVskimmed
p206
g54
sVfeeling
p207
g36
sVentail
p208
g32
sVGenerally
p209
g48
sVspent
p210
g68
sVThen
p211
g48
sVresponsible
p212
g26
sVrecommended
p213
g54
sVabsorbed
p214
g68
sVThey
p215
VPRON
p216
sVAsk
p217
VVERB
p218
sVshall
p219
VVERB
p220
sVWish
p221
g32
sVobject
p222
g32
sVvexing
p223
g34
sVdebonair
p224
g26
sVconceded
p225
g54
sVTypical
p226
g26
sVcamp
p227
g36
sVnineteenth
p228
g58
sVmating
p229
g34
sVpurged
p230
g68
sVincomplete
p231
g26
sVmarvel
p232
g32
sVadvisory
p233
g36
sVnominated
p234
g68
sVundue
p235
g26
sVparticipate
p236
g32
sVCongressional
p237
g26
sVtouches
p238
g95
sVbusy
p239
g26
sVclicked
p240
g68
sVExtend
p241
g32
sV695
p242
g28
sVthan
p243
VADP
p244
sVrich
p245
g26
sVNevertheless
p246
g48
sVever
p247
g48
sVthree-year
p248
g26
sVflanked
p249
g68
sVreprimanded
p250
g68
sVboarded
p251
g54
sVrespond
p252
g32
sVmandatory
p253
g26
sVfair
p254
g26
sVtransferred
p255
g54
sVfail
p256
g32
sVresigned
p257
g54
sVbest
p258
VADJ
p259
sVpricking
p260
g34
sVscore
p261
g36
sVpreserve
p262
g32
sVindecisive
p263
g26
sVredistricting
p264
g34
sVextend
p265
g32
sVrolled
p266
g54
sVauthorizing
p267
g34
sVCapello
p268
g109
sVfallacious
p269
g26
sVdemanded
p270
g68
sVplanned
p271
g68
sVargue
p272
g32
sVasked
p273
g68
sV30th
p274
VADJ
p275
sVliberal-conservative
p276
g26
sV2nd
p277
g58
sV102
p278
g28
sVmonth-long
p279
g26
sVblonde
p280
g26
sV255
p281
g98
sVrelearns
p282
g95
sVSitting
p283
g34
sV.
p284
g284
sVmuch
p285
VADJ
p286
sVsaute
p287
g32
sVone-week-old
p288
g26
sVallotting
p289
g34
sV1,212,000
p290
g28
sVworked
p291
g68
sVmisconstrued
p292
g68
sV1213-15
p293
g98
sVplayed
p294
g54
sVInnumerable
p295
g26
sVconditioned
p296
g68
sVeighteen
p297
g28
sVLondon-based
p298
g26
sVcampaigning
p299
g34
sVtrusted
p300
g54
sVdamaged
p301
g54
sVyellow
p302
g26
sVcumulative
p303
g26
sVsplit
p304
g68
sVbid
p305
g36
sVfairly
p306
g122
sV3,399
p307
g28
sVMaybe
p308
g48
sVmiddle-aged
p309
g26
sV5-to-2
p310
g28
sV5-to-3
p311
g28
sVacademic
p312
g26
sVskidding
p313
g34
sVcorporate
p314
g26
sVfittest
p315
g259
sVspurred
p316
g54
sVsleeps
p317
g95
sVSubsequent
p318
g26
sVdistribute
p319
g32
sVcredited
p320
g68
sVrushing
p321
g34
sVprevious
p322
g26
sVease
p323
g32
sVhad
p324
VVERB
p325
sVeasy
p326
g26
sVhas
p327
VVERB
p328
sVApart
p329
g48
sVmunicipal
p330
g26
sVposed
p331
g54
sVpossible
p332
g26
sVknock-down
p333
g26
sVpossibly
p334
g48
sVclustered
p335
g68
sVimposed
p336
g68
sVunique
p337
g26
sVmisled
p338
g68
sVright
p339
g26
sVold
p340
g26
sVtruncated
p341
g68
sVculpas
p342
g109
sV3,325
p343
g28
sVBetween
p344
VADP
p345
sVfor
p346
g244
sVp.m.
p347
g48
sVcontributing
p348
g34
sVimposes
p349
g95
sVsummoned
p350
VVERB
p351
sVInstant
p352
g70
sVCalls
p353
VVERB
p354
sVol'
p355
g26
sVdental
p356
g26
sV6,000
p357
g28
sVshifting
p358
g34
sVdefensive
p359
g26
sVlosing
p360
g34
sVmanufacturing
p361
g34
sVshaken
p362
g68
sVbalking
p363
g34
sVrebuffed
p364
g68
sVstoked
p365
g68
sVlacked
p366
g54
sVslightly
p367
g48
sVconsulting
p368
g34
sVhoneymoon
p369
g36
sVundermining
p370
g34
sVsow
p371
g32
sVreducing
p372
g34
sVsupport
p373
g36
sVconstantly
p374
g48
sVauthorized
p375
g68
sVresulted
p376
g54
sVcall
p377
g32
sVhappy
p378
g26
sVoffer
p379
g32
sVunderstandably
p380
g48
sVforming
p381
g34
sVCompleting
p382
g34
sVunderstandable
p383
g26
sVpaneled
p384
g68
sVelse's
p385
VPRT
p386
sVinside
p387
g244
sVstrongest
p388
g259
sVunanimous
p389
g26
sVsmashed
p390
g54
sV8,293
p391
g28
sV150
p392
g28
sVjuvenile
p393
g26
sVproud
p394
g26
sVliberal
p395
g26
sV154
p396
g28
sVSix
p397
g28
sVproven
p398
g68
sV''
p399
g284
sVexist
p400
g32
sVprotested
p401
g54
sVNoting
p402
g34
sVeventual
p403
g26
sVPossible
p404
g26
sVambitious
p405
g26
sVsmell
p406
g32
sVroll
p407
g32
sVintend
p408
g32
sVsmelling
p409
g34
sVrolling
p410
g34
sVfastened
p411
g68
sVFifth
p412
g275
sVpush
p413
g32
sVoverturned
p414
g54
sVcorps
p415
g109
sV645-acre
p416
g26
sVballet
p417
g36
sVflubbed
p418
g54
sV8861
p419
g28
sV900-student
p420
g26
sVshouldda
p421
VVERB
p422
sVeliminate
p423
g32
sVmourn
p424
g32
sVexact
p425
g26
sV1.10.8
p426
g28
sV1.10.4
p427
g28
sV1.10.1
p428
g28
sVleave
p429
g32
sVsolved
p430
g68
sVsettle
p431
g32
sVprevent
p432
g32
sVsign
p433
g32
sV3505o
p434
g98
sVogled
p435
g68
sVcelebrated
p436
g68
sVmelt
p437
g32
sVcurrent
p438
g26
sV300
p439
g28
sVSouthwest
p440
g40
sVcelebrates
p441
g95
sVMe
p442
VPRON
p443
sVdrafted
p444
g54
sVunderstanding
p445
g34
sValone
p446
g48
sValong
p447
g244
sVMy
p448
g149
sVhurtling
p449
g34
sVAssociated
p450
g24
sVbrilliant
p451
g26
sVstudied
p452
g68
sVDisplayed
p453
g68
sVaccomplished
p454
g68
sVlove
p455
g32
sVprefer
p456
g32
sVlogical
p457
g26
sVundergone
p458
g68
sVworking
p459
g34
sVpositive
p460
g26
sVangry
p461
g26
sVtightly
p462
g122
sVfilmy
p463
g26
sVopposed
p464
g68
sVThose
p465
VDET
p466
sVloving
p467
g34
sV``
p468
g284
sVafford
p469
g32
sVapparent
p470
g26
sVRetail
p471
g40
sVvalued
p472
g68
sVoriginally
p473
g48
sVinflamed
p474
g54
sVbelieves
p475
g95
sVLaotian
p476
g26
sVmulti-family
p477
g26
sVbelieved
p478
g54
sVOur
p479
g149
sVadmired
p480
g54
sVFederal
p481
g40
sVhides
p482
g95
sVallowed
p483
g68
sVstole
p484
g54
sVevidently
p485
g48
sVdivided
p486
g68
sVWhy
p487
VADV
p488
sVfive-year
p489
g26
sV23d
p490
g58
sVblasting
p491
g34
sVfueled
p492
g54
sVimproving
p493
g34
sVsuch
p494
g26
sVrevealed
p495
g54
sVnatural
p496
g26
sVconscious
p497
g26
sVyielding
p498
g34
sVso
p499
g122
sVpulled
p500
g54
sVhiring
p501
g34
sV12,000
p502
g28
sVmulti-million-dollar
p503
g26
sVtore
p504
g54
sVconstituted
p505
g54
sVavid
p506
g26
sVderive
p507
g32
sVtorn
p508
g68
sVtroubled
p509
g68
sVinstantly
p510
g48
sVembezzling
p511
g34
sVthereby
p512
g48
sVSocialist
p513
g40
sVcompelled
p514
g68
sVmaintaining
p515
g34
sVmatched
p516
g68
sVshouted
p517
g54
sVestablishing
p518
g34
sVrepaired
p519
g68
sVrevised
p520
g68
sVsponsor
p521
g36
sVentering
p522
g34
sV250-275
p523
g28
sVsquared
p524
g68
sVastray
p525
g48
sV798
p526
g98
sVseriously
p527
g48
sVbordering
p528
g34
sVmillion
p529
g28
sVseventh
p530
g58
sVgoverning
p531
g34
sVquite
p532
g122
sVlucrative
p533
g26
sVtraining
p534
g36
sVwrong
p535
g26
sVrouted
p536
g54
sVaboard
p537
g48
sVglobe-girdling
p538
g26
sVsaving
p539
g34
sVspoken
p540
g68
sVRoyal
p541
g40
sVone
p542
g28
sVvote
p543
g36
sVopen
p544
g26
sVbite
p545
g32
sVstructured
p546
g68
sVHmpf
p547
VPRT
p548
sVindicate
p549
g32
sV2
p550
g28
sVdraft
p551
g32
sVstuffed
p552
g68
sVridiculous
p553
g26
sVslashed
p554
g54
sVrepresenting
p555
g34
sVSeven
p556
g28
sVrival
p557
g26
sVso-so
p558
g26
sVsiding
p559
g34
sVfuture
p560
g36
sVdutifully
p561
g48
sVaddressing
p562
g34
sVnicer
p563
VADJ
p564
sV37-year-old
p565
g26
sVsumptuous
p566
g26
sV1927
p567
g28
sVturned
p568
g68
sVsad
p569
g26
sVpicketing
p570
g34
sVsay
p571
g32
sVburied
p572
g68
sVsaw
p573
g54
sVsat
p574
g54
sVJewish
p575
g40
sVaside
p576
g48
sVinstructed
p577
g68
sVnote
p578
g36
sVintends
p579
g95
sVfictitious
p580
g26
sVtake
p581
g32
sVHalf
p582
VPRT
p583
sVdestroy
p584
g32
sVhanding
p585
g34
sValtered
p586
g68
sVopposite
p587
g26
sVcandidly
p588
g48
sVtwo-run
p589
g26
sVknew
p590
g54
sVsuspects
p591
g95
sVEast-West
p592
g40
sVprinted
p593
g68
sVremarks
p594
g73
sVcreditable
p595
g26
sVaverage
p596
g36
sVdrive
p597
g36
sVfederal
p598
g26
sV30,000
p599
g28
sVaccented
p600
g68
sVwalking
p601
g34
sVdefinite
p602
g26
sVfar-reaching
p603
g26
sVbright
p604
g26
sVlettered
p605
g54
sVaggressive
p606
g26
sVslow
p607
g26
sVgoing
p608
g34
sVfour-letter
p609
g26
sVequipped
p610
g68
sVcongressional
p611
g26
sVdirected
p612
g68
sV2705
p613
g28
sVassistant
p614
g36
sVcondemning
p615
g34
sVcursing
p616
g34
sVinfallible
p617
g26
sVawaiting
p618
g34
sVHaving
p619
VVERB
p620
sVprime
p621
g26
sVThereafter
p622
g48
sVliable
p623
g26
sVwhere
p624
g488
sV16th
p625
g275
sVenthralled
p626
g68
sVraged
p627
g54
sVhastened
p628
g54
sVaroused
p629
g68
sVThat
p630
g140
sVjumped
p631
g54
sVoutclassed
p632
g68
sVenjoys
p633
g95
sVadept
p634
g26
sVconcentrate
p635
g32
sVspare
p636
g26
sVhit-run
p637
g26
sVspark
p638
g32
sVsuppressed
p639
g68
sVundermine
p640
g32
sVoust
p641
g32
sVSpangled
p642
g40
sVmany
p643
g286
sVexpended
p644
g68
sVgrooming
p645
g34
sVcan't
p646
VVERB
p647
sVmano
p648
g109
sVyearly
p649
g48
sVwell-prepared
p650
g26
sVanti
p651
g244
sVcombines
p652
g95
sVstretch
p653
g32
sVmounting
p654
g34
sVlocally
p655
g48
sVconcede
p656
g32
sVcollided
p657
g54
sVcombined
p658
g68
sVwants
p659
g95
sV10-hour
p660
g26
sVthousand
p661
g28
sVformed
p662
g68
sVRotary
p663
VNOUN
p664
sVnotarized
p665
g68
sVformer
p666
g286
sVAdjusted
p667
g68
sVconsulted
p668
g68
sVeasier
p669
g564
sVinvoking
p670
g34
sVsqueezed
p671
g68
sVall-round
p672
g26
sVengaged
p673
g68
sVquiet
p674
g26
sV3-game
p675
g26
sVunderestimate
p676
g32
sVedged
p677
g54
sVI
p678
g216
sVmuch-copied
p679
g26
sVAnywhere
p680
VADV
p681
sVwired
p682
g68
sVcheery
p683
g26
sVAppropriately
p684
g48
sVundefined
p685
g26
sV60,000
p686
g28
sVcosts
p687
g73
sV214
p688
g98
sV215
p689
g98
sVsteamed
p690
g68
sV213
p691
g28
sV210
p692
g28
sV211
p693
g98
sVbeing
p694
VVERB
p695
sVrest
p696
VNOUN
p697
sVsummed
p698
g54
sVweekly
p699
g26
sVjarred
p700
g68
sVesprit
p701
g109
sVformative
p702
g26
sVprominently
p703
g48
sVaround
p704
g48
sVrejoin
p705
g32
sVdark
p706
g26
sVinsist
p707
g32
sVtranscended
p708
g54
sV3646
p709
g28
sV2-run
p710
g26
sVsensational
p711
g26
sVContemporary
p712
g26
sVdiscarded
p713
g68
sVfull-scale
p714
g26
sV64
p715
g28
sVsatisfactory
p716
g26
sVcouldn't
p717
g647
sVexplaining
p718
g34
sVdiving
p719
g34
sVracial
p720
g26
sVthinks
p721
g95
sVrefer
p722
g32
sVscientific
p723
g26
sVconfided
p724
g54
sVretains
p725
g95
sVYou'll
p726
g169
sVElectric
p727
g40
sVinterfering
p728
g34
sVfavorite
p729
g26
sVslender
p730
g26
sVact
p731
g36
sVperturbed
p732
g68
sVburning
p733
g34
sVNo
p734
g127
sVLatter
p735
g286
sVActing
p736
VVERB
p737
sVlively
p738
g26
sVcertifying
p739
g34
sVAuthenticated
p740
g68
sVIncreasing
p741
g34
sVcrazy-wonderful
p742
g26
sVher
p743
g149
sVmasquerades
p744
g95
sVrecommends
p745
g95
sVcomplete
p746
g26
sVN.
p747
VNOUN
p748
sVwith
p749
g244
sVbuying
p750
g36
sVhandsome
p751
g26
sVthey're
p752
VPRT
p753
sVrush
p754
g36
sVagree
p755
g32
sVdetailed
p756
g68
sVgone
p757
g68
sVad
p758
g109
sVbrotherly
p759
g26
sVcertain
p760
g26
sVam
p761
VVERB
p762
sVal
p763
g109
sVan
p764
g127
sVHow
p765
g488
sVas
p766
g30
sVat
p767
g244
sVwalks
p768
g95
sVwatched
p769
g68
sVbeaming
p770
g34
sV637
p771
g28
sVvocational
p772
g26
sVabolish
p773
g32
sVtight
p774
g26
sVAtlantic
p775
g40
sVadministers
p776
g95
sVcontend
p777
g32
sVaccosted
p778
g54
sVmechanical
p779
g26
sVmass
p780
g36
sVoriginal
p781
g26
sVconsider
p782
g32
sVcaused
p783
g68
sVceramic
p784
g26
sV7.19
p785
g28
sVcauses
p786
g73
sVimproperly
p787
g48
sVhunting
p788
g34
sVto
p789
VPRT
p790
sVreturned
p791
g54
sVfloated
p792
g54
sVcandid
p793
g26
sV24th
p794
g58
sVaccompanying
p795
g34
sVlaying
p796
g34
sVjoined
p797
g54
sVlarge
p798
g26
sVadjust
p799
g32
sVsmall
p800
g26
sVVita
p801
g109
sVsank
p802
g54
sV198
p803
g98
sV195
p804
g28
sVShould
p805
g220
sVpast
p806
g26
sVpass
p807
g32
sVprevailed
p808
g54
sVfull
p809
g26
sVescaping
p810
g34
sV11-18
p811
g28
sV37,679
p812
g28
sVTotaling
p813
g34
sVprior
p814
g48
sVperiodic
p815
g26
sVsocial
p816
g26
sVtax-free
p817
g26
sVvia
p818
g244
sVfollowed
p819
g68
sVselect
p820
g26
sVpitching
p821
g34
sV6
p822
g28
sVRussian
p823
g26
sVrefueling
p824
g34
sVmore
p825
g286
sVNewport-based
p826
g26
sVcorrected
p827
g68
sVone-sided
p828
g26
sVnonviolent
p829
g26
sVkeeping
p830
g34
sVsent
p831
g54
sVlearn
p832
g32
sVknocked
p833
g54
sVmale
p834
g26
sVbeautiful
p835
g26
sVprompt
p836
g32
sVstated
p837
g54
sVaccept
p838
g32
sVsense
p839
g36
sVhuge
p840
g26
sVrespective
p841
g26
sVimminent
p842
g26
sVMisunderstanding
p843
g34
sVdismissed
p844
g68
sVglowing
p845
g34
sVmonopolistic
p846
g26
sVwaved
p847
g54
sVplant
p848
g36
sVGather
p849
g218
sVplans
p850
g73
sVagitating
p851
g34
sVSwiss
p852
g26
sV44-year-old
p853
g26
sVpleaded
p854
g54
sVhigh-legged
p855
g26
sVregister
p856
g32
sVfundamental
p857
g26
sVanti-Negro
p858
g26
sVreplied
p859
g54
sVinstalled
p860
g68
sVwide-ranging
p861
g26
sVreplies
p862
g354
sVits
p863
g149
sVrapidly
p864
g48
sVtermed
p865
g54
sVpronto
p866
g48
sVbypass
p867
g32
sVseverely
p868
g48
sVsubtitled
p869
g68
sVbuys
p870
g95
sVcoping
p871
g34
sValways
p872
g48
sVloosely
p873
g48
sVpiping
p874
g34
sVfound
p875
g54
sVupstairs
p876
g26
sVThey're
p877
g753
sVreduce
p878
g32
sVfinish
p879
g36
sVRosy
p880
g40
sVreally
p881
g48
sVinquired
p882
g54
sVmissed
p883
g54
sVmisses
p884
g95
sVministerial
p885
g26
sVReport
p886
g218
sVplotting
p887
g34
sVdrifting
p888
g34
sVqualify
p889
g32
sVNine
p890
g28
sVimagine
p891
g32
sVplowing
p892
g34
sVreared
p893
g68
sVretained
p894
g68
sVexpedient
p895
g26
sVdarlin'
p896
g26
sVexhibited
p897
g54
sVarose
p898
g54
sVmajor
p899
g26
sVrooted
p900
g68
sVthereafter
p901
g48
sVcontended
p902
g68
sVSprinkle
p903
g32
sVheads
p904
g73
sVthreatening
p905
g34
sV6-ounce
p906
g26
sVbedridden
p907
g26
sVfranker
p908
g564
sVinterviewed
p909
g54
sVimmediate
p910
g26
sVconsult
p911
g32
sVsecretarial
p912
g26
sVRecounting
p913
g34
sVdefends
p914
g95
sVdetermined
p915
g68
sVguarding
p916
g34
sVblond
p917
g26
sVsell
p918
g32
sValso
p919
g48
sVinternal
p920
g26
sVplay
p921
g32
sVplan
p922
g36
sVaccepting
p923
g34
sVsingled
p924
g54
sVpre-Fair
p925
g26
sVseize
p926
g32
sVsometimes
p927
g48
sVcover
p928
g32
sVbarred
p929
g68
sVartistic
p930
g26
sV1688
p931
g98
sVIf
p932
g30
sVattacking
p933
g34
sVwording
p934
g34
sVfar-flung
p935
g26
sVgold
p936
g36
sVDeadly
p937
g70
sVHad
p938
g325
sVUnited
p939
g24
sV687.87
p940
g28
sVbaneful
p941
g26
sVHas
p942
g328
sVre-arguing
p943
g34
sVwrites
p944
g95
sVfailed
p945
g54
sValloted
p946
g68
sVordained
p947
g68
sVboarding
p948
g34
sVdependent
p949
g26
sVbanned
p950
g68
sVresent
p951
g32
sVthey'd
p952
g169
sVremedy
p953
g32
sVclosely
p954
g48
sVfrightening
p955
g34
sVcry
p956
g36
sVstirling
p957
g26
sV125,000
p958
g28
sVHeld
p959
g68
sVkill
p960
g32
sVapproaching
p961
g34
sVbulky
p962
g26
sVset
p963
g32
sVFor
p964
g244
sVpotent
p965
g26
sVsee
p966
g32
sVmatter
p967
g36
sVmuted
p968
g68
sVcurrently
p969
g48
sV15th
p970
g58
sVendure
p971
g32
sVknowing
p972
g34
sV11-year-old
p973
g26
sVimproved
p974
g351
sVdoor-fronted
p975
g26
sVbarely
p976
g122
sVrose
p977
g54
sVapprove
p978
g32
sVLegislative
p979
g40
sVacted
p980
g54
sVadjoining
p981
g34
sVpublishing
p982
g34
sVOl'
p983
g40
sVmonthly
p984
g26
sVconvicted
p985
g68
sV1,400
p986
g28
sVfirm
p987
g36
sVresting
p988
g34
sVrepresentative
p989
g36
sVShe's
p990
VPRT
p991
sVStarting
p992
g34
sVwheeled
p993
g54
sVhandling
p994
g34
sVuncertain
p995
g26
sVwarless
p996
g26
sVstraight
p997
g26
sVexpanded
p998
g54
sVforgetting
p999
g34
sVevaluating
p1000
g34
sVMeasure
p1001
g32
sVowed
p1002
g54
sVpound
p1003
g32
sVhoping
p1004
g34
sVaveraging
p1005
g34
sVbinding
p1006
g34
sVall-automatic
p1007
g26
sVbeautifully
p1008
g48
sVspectacular
p1009
g26
sVchoking
p1010
g34
sVelevated
p1011
g68
sVSinfonica
p1012
g109
sVMany
p1013
g286
sVflooded
p1014
g68
sValert
p1015
g26
sVviewing
p1016
g34
sVrecent
p1017
g26
sVcanned
p1018
g68
sVNamed
p1019
g68
sVmakes
p1020
g95
sValleging
p1021
g34
sVconcrete
p1022
g26
sVregulating
p1023
g34
sVoft-repeated
p1024
g26
sVcomprise
p1025
g32
sVlistening
p1026
g34
sVplagued
p1027
g54
sVeager
p1028
g26
sVsurprised
p1029
g68
sVharvesting
p1030
g34
sVOn
p1031
g244
sVintra-mural
p1032
g26
sVOf
p1033
g244
sVsuffering
p1034
g34
sVOr
p1035
VCONJ
p1036
sVformal
p1037
g26
sV75th
p1038
g58
sVpertinent
p1039
g26
sVMethodist
p1040
VNOUN
p1041
sVcontinue
p1042
g32
sVbouncy
p1043
g26
sVmighty
p1044
g122
sVpall
p1045
g32
sVcurious
p1046
g26
sVamicable
p1047
g26
sVMostly
p1048
g48
sVSufficient
p1049
g26
sVdating
p1050
g34
sVbe
p1051
VVERB
p1052
sVLook
p1053
g32
sVnowhere
p1054
g48
sVtidal
p1055
g26
sVby
p1056
g244
sVexaggerated
p1057
g68
sVdeserves
p1058
g95
sVbiennial
p1059
g26
sV42d
p1060
g58
sVinto
p1061
g244
sVYoung
p1062
g40
sVawaited
p1063
g54
sVselected
p1064
g68
sVprimarily
p1065
g48
sVrepaid
p1066
g68
sVspending
p1067
g34
sVbargaining
p1068
g36
sVspecifically
p1069
g48
sV:
p1070
g284
sVopens
p1071
g95
sVconsiderably
p1072
g48
sVRegarding
p1073
g244
sVelsewhere
p1074
g48
sVgraciously
p1075
g48
sVtally
p1076
g36
sVconsiderable
p1077
g26
sVposted
p1078
g54
sVcharmed
p1079
g54
sVConsolidated
p1080
g24
sVup
p1081
VPRT
p1082
sVus
p1083
g443
sVpaired
p1084
g54
sVmature
p1085
g26
sVgenial
p1086
g26
sVaerial
p1087
g26
sVW.'s
p1088
VPRT
p1089
sVinfluence
p1090
g32
sVchat
p1091
g32
sVpresides
p1092
g95
sVColorful
p1093
g26
sVfixing
p1094
g34
sVoccasional
p1095
g26
sVDanish
p1096
g26
sVago
p1097
g48
sVland
p1098
g36
sVrescued
p1099
g54
sVwalked
p1100
g54
sVcarrying
p1101
g34
sV4-homer
p1102
g26
sVfresh
p1103
g26
sVholed
p1104
g54
sVhaving
p1105
g620
sVmodernizing
p1106
g34
sVsaying
p1107
g34
sVguessing
p1108
g34
sVtattered
p1109
g68
sVexisting
p1110
g34
sVillustrated
p1111
g68
sV37,000
p1112
g28
sVshrugged
p1113
g54
sVseemed
p1114
g54
sVlongstanding
p1115
g26
sVconcerned
p1116
g68
sVyoung
p1117
g26
sVsend
p1118
g32
sVindicating
p1119
g34
sVretire
p1120
g32
sVcerebrated
p1121
g68
sVcontinues
p1122
g95
sVpetitions
p1123
g73
sVdecorating
p1124
g34
sVcontinued
p1125
g54
sVtimely
p1126
g26
sVmagic
p1127
g36
sVexperiencing
p1128
g34
sVthey've
p1129
VPRT
p1130
sVfewer
p1131
g286
sVracy
p1132
g26
sVtry
p1133
g32
sVTalking
p1134
g34
sVrace
p1135
g36
sVburrowed
p1136
g54
sVthirty-eighth
p1137
g58
sVimply
p1138
g32
sV2825
p1139
g98
sVexpressed
p1140
g54
sVconsistently
p1141
g48
sV1409
p1142
g28
sVflowing
p1143
g34
sVTibetan
p1144
g26
sVled
p1145
g54
sVgathered
p1146
g54
sV90-day
p1147
g26
sVdelivering
p1148
g34
sVPrior
p1149
g48
sVlet
p1150
g68
sVfifteen
p1151
g28
sVgreat
p1152
g26
sVengage
p1153
g32
sV52-year
p1154
g26
sVcredits
p1155
g73
sVreceive
p1156
g32
sVinvolved
p1157
g54
sVresulting
p1158
g34
sVReligious
p1159
g26
sValtho
p1160
g30
sVLeading
p1161
g34
sV1934
p1162
g28
sV330
p1163
g28
sVboxy
p1164
g26
sVdesiring
p1165
g34
sVstanding
p1166
g34
sVwashed-out
p1167
g26
sVexciting
p1168
g26
sVPresently
p1169
g48
sVillegal
p1170
g26
sVnext
p1171
g286
sVeleven
p1172
g28
sVassuring
p1173
g34
sVdoubling
p1174
g34
sVoccurred
p1175
g54
sVbodily
p1176
g26
sV4-for-5
p1177
g28
sVsharply
p1178
g48
sV33d
p1179
g58
sV11,744
p1180
g28
sVpracticing
p1181
g34
sVthis
p1182
g140
sVchallenge
p1183
g36
sVinsists
p1184
g95
sVrun-scoring
p1185
g26
sVthin
p1186
g26
sVfulfill
p1187
g32
sVfive-month
p1188
g26
sVslid
p1189
g54
sVweaker
p1190
g564
sVslim
p1191
g26
sVpromotional
p1192
g26
sVhigh
p1193
g26
sVSeveral
p1194
g286
sVweaken
p1195
g32
sVeducational
p1196
g26
sVdestroying
p1197
g34
sVintelligent
p1198
g26
sVtied
p1199
g54
sVhalted
p1200
g68
sVhitched
p1201
g68
sVfits
p1202
g95
sVdaring
p1203
g34
sVrealized
p1204
g54
sVOne
p1205
g28
sVallow
p1206
g32
sVcounted
p1207
g54
sVerasing
p1208
g34
sVCatholic
p1209
g40
sVevolutionary
p1210
g26
sV65,000
p1211
g28
sVproduces
p1212
g95
sVmove
p1213
g32
sVdoubtful
p1214
g26
sVproduced
p1215
g54
sVyear-earlier
p1216
g564
sVperfect
p1217
g26
sVchosen
p1218
g68
sVstalled
p1219
g68
sVSolid
p1220
g70
sVSocial
p1221
g40
sVrealize
p1222
g32
sVpresidential
p1223
g26
sVruefully
p1224
g48
sVscenic
p1225
g26
sVmerge
p1226
g32
sVdelightful
p1227
g26
sV70,000
p1228
g28
sVaccompanied
p1229
g68
sV100-yard
p1230
g26
sVexacerbated
p1231
g68
sVdoing
p1232
g34
sVintangible
p1233
g26
sVthirteen
p1234
g28
sVwitness
p1235
g32
sVbunched
p1236
g54
sVfundamentally
p1237
g122
sV'
p1238
g284
sVVery
p1239
g122
sVmonumental
p1240
g26
sVA.M.
p1241
g48
sVShortly
p1242
g48
sVloomed
p1243
g54
sVsurely
p1244
g48
sVMeet
p1245
g32
sVsteering
p1246
g34
sVcould
p1247
g220
sVstaggered
p1248
g68
sV450
p1249
g28
sVowned
p1250
g54
sValleged
p1251
g68
sVthree-way
p1252
g26
sVNaturally
p1253
g48
sVlegislative
p1254
g26
sVEastern
p1255
g40
sVefficiently
p1256
g48
sVpainful
p1257
g26
sVfouling
p1258
g34
sVvigorous
p1259
g26
sVemasculated
p1260
g54
sVDemocratic
p1261
g40
sVD'Art
p1262
g109
sVreacted
p1263
g54
sVextraordinarily
p1264
g48
sVtortured
p1265
g68
sVappealing
p1266
g26
sVbriefing
p1267
g34
sVsteep
p1268
g26
sVsteer
p1269
g32
sVcollecting
p1270
g34
sVfalse
p1271
g26
sV22111
p1272
g98
sVtrusting
p1273
g26
sVElectoral
p1274
g40
sVspelled
p1275
g68
sVSecret
p1276
g26
sVdefending
p1277
g34
sVclearly
p1278
g48
sVviewed
p1279
g68
sVmountainous
p1280
g26
sVdishes
p1281
g95
sVstudying
p1282
g34
sVawed
p1283
g68
sVdemolished
p1284
g68
sVashore
p1285
g48
sV1958-60
p1286
g28
sVconservative-liberal
p1287
g26
sVAsked
p1288
g68
sVso-called
p1289
g26
sVstronger
p1290
g564
sVface
p1291
g32
sVignited
p1292
g68
sVyou'll
p1293
g169
sVundersea
p1294
g26
sVterminate
p1295
g32
sVcentralized
p1296
g68
sVdisbanded
p1297
g54
sVbring
p1298
g32
sVuncommitted
p1299
g26
sVUnder
p1300
g244
sVtitian-haired
p1301
g26
sVrough
p1302
g26
sVtrivial
p1303
g26
sVprincipal
p1304
VADJ
p1305
sVMeanwhile
p1306
g48
sVshould
p1307
g220
sVplanted
p1308
g68
sVriding
p1309
g34
sVhope
p1310
g32
sVmeant
p1311
g68
sVhandle
p1312
g32
sVlistened
p1313
g54
sVmeans
p1314
g73
sVintellectually
p1315
g48
sVimpinging
p1316
g34
sVlucky
p1317
g26
sVOnce
p1318
g48
sVfollowing
p1319
g34
sVBecause
p1320
g48
sVstreamlined
p1321
g68
sVtaxed
p1322
g68
sVrapped
p1323
g54
sVfavoring
p1324
g34
sVintervening
p1325
g34
sVwithstand
p1326
g32
sVtemporarily
p1327
g48
sV10-year-old
p1328
g26
sVpacked
p1329
g68
sVnationwide
p1330
g26
sVnuclear
p1331
g26
sVcloudless
p1332
g26
sVRepublican
p1333
g1041
sVkeynote
p1334
g32
sVexplosive
p1335
g26
sVonetime
p1336
g26
sVfigured
p1337
g54
sVinvited
p1338
g68
sV1960-61
p1339
g28
sVfigures
p1340
g95
sVinvites
p1341
g95
sVstrongly
p1342
g48
sVadjusted
p1343
g68
sVWould
p1344
VVERB
p1345
sV2809
p1346
g28
sVallocated
p1347
g54
sVsubdue
p1348
g32
sVpowered
p1349
g68
sVmusic-loving
p1350
g26
sV34220
p1351
g98
sVdrank
p1352
g54
sVhottest
p1353
g259
sVcommuted
p1354
g54
sVPulling
p1355
VVERB
p1356
sVrigged
p1357
g68
sVdeductible
p1358
g26
sVfielding
p1359
g1356
sV60-day
p1360
g26
sVoptimistic
p1361
g26
sVAdequate
p1362
g26
sVconserve
p1363
g32
sVlengthening
p1364
g34
sVinlaid
p1365
g68
sVemotionally
p1366
g48
sVpre-season
p1367
g26
sVfielded
p1368
g54
sVMedical
p1369
g40
sVupon
p1370
g244
sVnationally
p1371
g48
sVpaving
p1372
g34
sV38-7
p1373
g28
sVexpand
p1374
g32
sVoff
p1375
g1082
sVmention
p1376
g32
sV357
p1377
g98
sV355
p1378
g28
sV354
p1379
g28
sV350
p1380
g28
sV1.23
p1381
g28
sVMatching
p1382
g34
sV1.24
p1383
g28
sVlest
p1384
g30
sVnewest
p1385
g259
sVsoftening
p1386
g34
sVless
p1387
g122
sVGiven
p1388
g351
sV508-yard
p1389
g26
sV6124
p1390
g28
sV72nd
p1391
g58
sVgenerous
p1392
g26
sVwed
p1393
g32
sVresidential
p1394
g26
sVcombine
p1395
g32
sVexempt
p1396
g32
sV30,000,000
p1397
g28
sVincreased
p1398
g68
sVfive
p1399
g28
sVsupervise
p1400
g32
sVwhopping
p1401
g26
sVbecome
p1402
g32
sVgaining
p1403
g34
sVforeseeable
p1404
g26
sVThere's
p1405
VPRT
p1406
sVchoosing
p1407
g34
sV250
p1408
g28
sVSpeaking
p1409
g34
sVcontested
p1410
g54
sVsufficiently
p1411
g122
sVliterally
p1412
g48
sVavoid
p1413
g32
sVdoes
p1414
VVERB
p1415
sVinfiltrating
p1416
g34
sVincludes
p1417
g95
sVbeneath
p1418
g244
sVvs.
p1419
g244
sVstage
p1420
g36
sVgained
p1421
g54
sVasks
p1422
g95
sVidolize
p1423
g32
sVswimming
p1424
g34
sVSomewhere
p1425
g681
sV3,000
p1426
g28
sVmere
p1427
g26
sVterminated
p1428
g68
sVhousing
p1429
g34
sVstartled
p1430
g54
sVnaturally
p1431
g48
sVbuilding
p1432
g36
sVWe'll
p1433
g169
sV36th
p1434
g58
sVlowered
p1435
g68
sVcount
p1436
g32
sVtossed
p1437
g54
sVofficial
p1438
g26
sVsmooth
p1439
g26
sVplaced
p1440
g68
sVconvince
p1441
g32
sVbearing
p1442
g34
sVExecutive
p1443
VNOUN
p1444
sVrecognize
p1445
g32
sVdenote
p1446
g32
sVendeared
p1447
g54
sVeffected
p1448
g68
sVrenowned
p1449
g26
sVcompared
p1450
g68
sVconpired
p1451
g68
sVlately
p1452
g48
sV2-1/2
p1453
g28
sVincorrigible
p1454
g26
sVreckless
p1455
g26
sVInheriting
p1456
g34
sVSouth
p1457
g40
sVrule
p1458
g36
sVrigging
p1459
g34
sVlift
p1460
g32
sVcompete
p1461
g32
sVrural
p1462
g26
sVtax-exempt
p1463
g26
sVResidential
p1464
g40
sVmagnetic
p1465
g26
sVdesirable
p1466
g26
sVcontroversial
p1467
g26
sVoldest
p1468
g259
sVsaved
p1469
g54
sVdefraud
p1470
g32
sVvotes
p1471
g73
sVvoted
p1472
g54
sVsped
p1473
g54
sVworth
p1474
g26
sVMilitary
p1475
g40
sVsly
p1476
g26
sVwe'll
p1477
g169
sVexaggerate
p1478
g32
sVrelentlessly
p1479
g48
sVSurrounding
p1480
g34
sVdelegate
p1481
g32
sVnondescript
p1482
g26
sVdwindled
p1483
g54
sVmonotonous
p1484
g26
sVpreached
p1485
g54
sV29th
p1486
g58
sV145-pound
p1487
g26
sVestablished
p1488
g54
sVdeliberate
p1489
g26
sVnear
p1490
g244
sVmelted
p1491
g68
sVabove
p1492
g244
sVofficially
p1493
g48
sVconsisting
p1494
g34
sVtold
p1495
g54
sVFaced
p1496
VVERB
p1497
sVfestive
p1498
g26
sVobtained
p1499
g54
sVNonresidential
p1500
g26
sVstudy
p1501
g36
sVpooling
p1502
g34
sVstressed
p1503
g54
sVsecure
p1504
g32
sVhighly
p1505
g122
sV9329
p1506
g98
sVtotal
p1507
g36
sVnegative
p1508
g26
sVStay
p1509
VVERB
p1510
sVjunior-senior
p1511
g26
sVseparated
p1512
g68
sVtolerated
p1513
g68
sVaward
p1514
g36
sVaware
p1515
g26
sVzeroed
p1516
g68
sVadamant
p1517
g26
sV1991
p1518
g28
sVwore
p1519
g54
sVdivorced
p1520
g68
sVpermits
p1521
g95
sVwork
p1522
g36
sV38-point
p1523
g26
sVworn
p1524
g68
sVindicated
p1525
g54
sVcited
p1526
g68
sV553
p1527
g98
sVimpair
p1528
g32
sVindicates
p1529
g95
sVvalidated
p1530
g54
sVtotaled
p1531
g54
sVacrobatic
p1532
g26
sVprovide
p1533
g32
sVverify
p1534
g32
sVordinary
p1535
g26
sVgamble
p1536
g36
sVsubpenaed
p1537
g68
sVafter
p1538
g30
sVlay
p1539
g54
sVWild
p1540
g40
sVaustere
p1541
g26
sVhasty
p1542
g26
sVappreciate
p1543
g32
sVgreet
p1544
g32
sVcounseled
p1545
g68
sVgreen
p1546
g36
sV21-year-old
p1547
g26
sVorder
p1548
g36
sVinfested
p1549
g68
sVdevote
p1550
g32
sVColonial
p1551
g40
sVtricked
p1552
g68
sVproportionate
p1553
g26
sV6.5
p1554
g28
sVunderstates
p1555
g95
sVsomewhere
p1556
g48
sVair-conditioned
p1557
g26
sVworkable
p1558
g26
sVthen
p1559
g48
sVthem
p1560
g443
sVaffected
p1561
g68
sVbans
p1562
g95
sVsafe
p1563
g26
sVbreak
p1564
g32
sVbang
p1565
g548
sVthey
p1566
g216
sVbolted
p1567
g68
sVclassified
p1568
g68
sVreasonable
p1569
g26
sVfeeds
p1570
g95
sV375
p1571
g28
sVlifted
p1572
g54
sVdumping
p1573
g34
sVwide-open
p1574
g26
sVhooked
p1575
g54
sVruggedly
p1576
g48
sVEverywhere
p1577
g48
sVforth
p1578
g48
sV26-year-old
p1579
g26
sVstandard
p1580
g26
sVdetecting
p1581
g34
sV2274
p1582
g98
sVrecovering
p1583
g34
sVcreated
p1584
g68
sVNational
p1585
g40
sVrenew
p1586
g32
sVoppose
p1587
g32
sVincorporated
p1588
g68
sVorganize
p1589
g32
sVGen.
p1590
g1444
sVanother
p1591
g140
sVcomic
p1592
g26
sVtangle
p1593
g32
sVelectronic
p1594
g26
sVillustrate
p1595
g32
sVrated
p1596
g68
sVapproximately
p1597
g48
sVcompromise
p1598
g36
sVinflate
p1599
g32
sVMasonic
p1600
g40
sVrejected
p1601
g54
sVface-saving
p1602
g26
sVAdvisory
p1603
g40
sVlast
p1604
g286
sVhike
p1605
g32
sVseated
p1606
g54
sVunmistakably
p1607
g48
sVclosed-door
p1608
g26
sViron
p1609
g32
sVpowers
p1610
g95
sVmanned
p1611
g68
sVlull
p1612
g32
sVInstead
p1613
g48
sVforced
p1614
g68
sVgenuine
p1615
g26
sVconvenient
p1616
g26
sVlatter
p1617
g286
sVquieted
p1618
g54
sVwhat
p1619
VDET
p1620
sVextending
p1621
g34
sVinvolving
p1622
g34
sVculminates
p1623
g95
sVgrave
p1624
g26
sVIt'll
p1625
g125
sVTwelve
p1626
g28
sV45-degree
p1627
g26
sVaccounted
p1628
g54
sVThirteen
p1629
g28
sVvoting
p1630
g34
sVresponded
p1631
g68
sVfitted
p1632
g68
sVrenting
p1633
g34
sVprecarious
p1634
g26
sVbrief
p1635
g26
sV7.5
p1636
g28
sVenjoyed
p1637
g68
sVEuropean
p1638
g26
sVtoast
p1639
g32
sVwasteful
p1640
g26
sVeasy-to-reach
p1641
g26
sVpursuing
p1642
g34
sVadequate
p1643
g26
sVdo
p1644
VVERB
p1645
sVde
p1646
g109
sVpreferred
p1647
g54
sVcongealed
p1648
g54
sVlearned
p1649
g68
sVcovering
p1650
g34
sV415
p1651
g28
sVerroneous
p1652
g26
sVw.
p1653
g70
sV15-hit
p1654
g26
sV4-13
p1655
g28
sVdepends
p1656
g95
sVIncumbent
p1657
g26
sVmiserable
p1658
g26
sVaway
p1659
g48
sVafloat
p1660
g48
sVunable
p1661
g26
sVdrawn
p1662
g68
sV92
p1663
g28
sVHappy
p1664
g70
sVwe
p1665
g216
sVconvertible
p1666
g26
sVreceived
p1667
g68
sVessentially
p1668
g48
sVill
p1669
g122
sVforty-year
p1670
g26
sVreceives
p1671
g95
sVrequests
p1672
g73
sVcon
p1673
g26
sVtough
p1674
g26
sVhaltingly
p1675
g48
sVwider
p1676
g564
sVspeak
p1677
g32
sVpetty
p1678
g26
sVunhappily
p1679
g48
sVI've
p1680
g1130
sVcondemned
p1681
g68
sV3-10
p1682
g28
sVflexible
p1683
g26
sVinnocent
p1684
g26
sVVice
p1685
g40
sVapplied
p1686
g54
sVpublicly
p1687
g48
sVabrupt
p1688
g26
sVaid
p1689
g36
sVhard-fought
p1690
g26
sVcrowning
p1691
g34
sVworld-wide
p1692
g48
sV2-inch
p1693
g26
sVconfirmed
p1694
g54
sVgrandiose
p1695
g26
sVDolce
p1696
g109
sVperform
p1697
g32
sVapparently
p1698
g48
sVavoids
p1699
g95
sVindependent
p1700
g26
sVspringing
p1701
g34
sVhang
p1702
g32
sVevil
p1703
g26
sVhand
p1704
g36
sVfirmer
p1705
g564
sVkept
p1706
g54
sVwhereby
p1707
g488
sVBudgetary
p1708
g40
sV1600
p1709
g28
sVhuddling
p1710
g34
sV1971
p1711
g28
sV1970
p1712
g28
sVthe
p1713
g127
sVmusical
p1714
g26
sVunified
p1715
g68
sVMemorial
p1716
g40
sVmingle
p1717
g32
sVquoted
p1718
g54
sVathletic
p1719
g26
sV50th
p1720
g275
sVadding
p1721
g34
sVbuiltin
p1722
g26
sVspread
p1723
g68
sVrequiring
p1724
g34
sV923,076
p1725
g28
sVDemocratic-endorsed
p1726
g26
sVinjuring
p1727
g34
sVbarge
p1728
g32
sVinsurgent
p1729
g26
sVCertain
p1730
g26
sVTrading
p1731
g34
sVcooled
p1732
g68
sVlurked
p1733
g54
sVhonored
p1734
g68
sVborn
p1735
g68
sVcontaminating
p1736
g34
sVLed
p1737
g1497
sVransacked
p1738
g54
sVpurple
p1739
g26
sVasking
p1740
g34
sVLet
p1741
g32
sVExternal
p1742
g40
sVdenied
p1743
g68
sVbeating
p1744
g34
sVGray
p1745
g40
sVmarketing
p1746
g34
sVconstructive
p1747
g26
sVPlace
p1748
g36
sVgraduated
p1749
g68
sVpost
p1750
g36
sVbanked
p1751
g54
sVpays
p1752
g95
sVMake
p1753
g32
sVsparing
p1754
g34
sVbound
p1755
g68
sVbalanced
p1756
g68
sVretrenching
p1757
g34
sVwailed
p1758
g54
sVfight
p1759
g36
sVway
p1760
g36
sVwas
p1761
VVERB
p1762
sVlowest
p1763
g259
sVsagging
p1764
g34
sVbecoming
p1765
g34
sVdead
p1766
g26
sVpre-set
p1767
g26
sVtrue
p1768
g26
sVabsent
p1769
g26
sVresponding
p1770
g34
sVveiled
p1771
g68
sVmaximum
p1772
g26
sVunusually
p1773
g122
sVpromises
p1774
g95
sVSome
p1775
VDET
p1776
sVmuscular
p1777
g26
sVpromised
p1778
g54
sVphysical
p1779
g26
sVIllustrated
p1780
g24
sVweakened
p1781
g68
sVstake
p1782
g32
sVparklike
p1783
g26
sVinterested
p1784
g68
sVCompetent
p1785
g26
sVgrimly
p1786
g48
sVscored
p1787
g68
sVo'clock
p1788
g48
sVLater
p1789
VADV
p1790
sVlet's
p1791
VVERB
p1792
sVbestowed
p1793
g54
sVtogether
p1794
g48
sVloyal
p1795
g26
sVnecessitated
p1796
g68
sVbasically
p1797
g48
sVswitched
p1798
g68
sVglobal
p1799
g26
sVsupplement
p1800
g32
sVgrateful
p1801
g26
sVcreative
p1802
g26
sVdevoted
p1803
g68
sVcertainly
p1804
g48
sVhonoring
p1805
g34
sVflash
p1806
g36
sVServe
p1807
g32
sVStrenuous
p1808
g26
sVbrown
p1809
g36
sVprotective
p1810
g26
sVseemingly
p1811
g48
sVanonymous
p1812
g26
sV10-year
p1813
g26
sVblast
p1814
g697
sVfeeble
p1815
g26
sVaggressively
p1816
g48
sVdark-haired
p1817
g26
sVJust
p1818
g48
sVpresented
p1819
g68
sVturns
p1820
g95
sVEpiscopal
p1821
g40
sVjurisdictional
p1822
g26
sVdistasteful
p1823
g26
sVdiscover
p1824
g32
sVhand-woven
p1825
g26
sVTrouble-free
p1826
g26
sVcost
p1827
g36
sVupped
p1828
g54
sVhelpless
p1829
g26
sVfree-for-all
p1830
g26
sVappear
p1831
g32
sVuniform
p1832
g36
sVDuring
p1833
g244
sVAlong
p1834
g244
sVappeal
p1835
g36
sVsatisfy
p1836
g32
sVfast-grossing
p1837
g26
sV2:30
p1838
g28
sVlustrous
p1839
g26
sVEnglish
p1840
g664
sVhadn't
p1841
VVERB
p1842
sVroaring
p1843
g34
sVteaches
p1844
g95
sVappears
p1845
g95
sVchange
p1846
g697
sVsending
p1847
g34
sVJuvenile
p1848
g40
sVDeaf
p1849
g40
sV101b
p1850
g98
sVusually
p1851
g48
sVretired
p1852
g54
sVstarring
p1853
g34
sVextra
p1854
g26
sVlending
p1855
g34
sVmarked
p1856
g68
sVpenalized
p1857
g68
sV22-12
p1858
g28
sVprove
p1859
g32
sVlive
p1860
g32
sVwonderfully
p1861
g122
sVofficiating
p1862
g34
sVFirst
p1863
g275
sVselects
p1864
g95
sVsouthern-central
p1865
g26
sVhesitated
p1866
g68
sV8,000
p1867
g28
sVPrix
p1868
g109
sVUnderlying
p1869
g1356
sVcan
p1870
g220
sVexchanged
p1871
g68
sVdedicated
p1872
g68
sVexpanding
p1873
g34
sVdidn't
p1874
VVERB
p1875
sVpaused
p1876
g54
sVheard
p1877
g54
sVchic
p1878
g26
sVoccur
p1879
g32
sV6-12
p1880
g28
sVproductive
p1881
g26
sVinfantile
p1882
g26
sVscrimmaged
p1883
g54
sVspreads
p1884
g95
sVfreezes
p1885
g95
sVwrite
p1886
g32
sVfamiliar
p1887
g26
sVgaping
p1888
g34
sVInterstate
p1889
g40
sVdampened
p1890
g68
sVAlways
p1891
g48
sVsacrifice
p1892
g36
sVsubstitute
p1893
g26
sVdisgusted
p1894
g68
sVproduce
p1895
g32
sVdrastic
p1896
g26
sVremember
p1897
g32
sVMetropolitan
p1898
g40
sVexplicit
p1899
g26
sV2-and-2
p1900
g28
sVaccelerated
p1901
g68
sVworsens
p1902
g95
sVtypical
p1903
g26
sVtagged
p1904
g68
sVserving
p1905
g34
sVindeed
p1906
g48
sVdisplayed
p1907
g68
sVraised
p1908
g68
sVaiding
p1909
g34
sVended
p1910
g54
sVstayed
p1911
g54
sVstatistical
p1912
g26
sVstill-building
p1913
g26
sVcold
p1914
g26
sVstill
p1915
g48
sVGreater
p1916
VADJ
p1917
sV1834
p1918
g28
sVacknowledge
p1919
g32
sVreacting
p1920
g34
sVinflicted
p1921
g54
sVspacious
p1922
g26
sVhalt
p1923
g32
sV100,000
p1924
g28
sV1955
p1925
g28
sV1954
p1926
g28
sV1957
p1927
g28
sV1956
p1928
g28
sV1951
p1929
g28
sV1950
p1930
g28
sV1953
p1931
g28
sV1952
p1932
g28
sVnot
p1933
VADV
p1934
sVnow
p1935
g48
sV1959
p1936
g28
sV1958
p1937
g28
sVnor
p1938
g1036
sVenacted
p1939
g68
sVdrop
p1940
g36
sV3247
p1941
g98
sVentirely
p1942
g48
sVen
p1943
g109
sVfired
p1944
g68
sVanother's
p1945
VDET
p1946
sVchallenged
p1947
g68
sVdirecting
p1948
g34
sVExcept
p1949
g244
sVchallenges
p1950
g95
sVet
p1951
g109
sVhappen
p1952
g32
sVavoided
p1953
g351
sV3300
p1954
g98
sVshown
p1955
g68
sVaccomplish
p1956
g32
sVopened
p1957
g54
sVhastily
p1958
g48
sVlooking
p1959
g34
sVrational
p1960
g26
sVreceiving
p1961
g34
sVVast
p1962
g26
sVinevitably
p1963
g48
sVrebel
p1964
g36
sVominous
p1965
g26
sVinevitable
p1966
g26
sVcare
p1967
g36
sV132,000
p1968
g28
sVNinth
p1969
g275
sVhonest
p1970
g26
sV511
p1971
g98
sVblind
p1972
g26
sVflying
p1973
g34
sVimpossibly
p1974
g122
sVstrengthened
p1975
g54
sVomitted
p1976
g68
sVThere
p1977
VPRT
p1978
sVcomprised
p1979
g68
sVdirectly
p1980
g48
sVimpossible
p1981
g26
sVdrove
p1982
g54
sV'em
p1983
g443
sVsize
p1984
g36
sVchecked
p1985
g54
sVsilent
p1986
g26
sVcaught
p1987
g68
sVbreed
p1988
g32
sVnaughtier
p1989
g564
sVCalmer
p1990
VADJ
p1991
sVscholastically
p1992
g48
sVmostly
p1993
g48
sVthat
p1994
g30
sVeliminates
p1995
g95
sVdisabuse
p1996
g32
sVpeck
p1997
g32
sVappreciated
p1998
g54
sVInc.
p1999
g24
sVreconvened
p2000
g68
sVreconvenes
p2001
g95
sVtroublesome
p2002
g26
sVremained
p2003
g54
sVInsofar
p2004
g48
sV13th
p2005
g58
sVrecover
p2006
g32
sVform
p2007
g32
sVd'etat
p2008
g109
sVveteran
p2009
g36
sVRefuses
p2010
g354
sVbegin
p2011
g32
sVUnlike
p2012
g244
sVneatly
p2013
g48
sVlanding
p2014
g34
sVsuccessive
p2015
g26
sVforever
p2016
g48
sVbicycle-auto
p2017
g26
sV31st
p2018
g58
sVsteady
p2019
g26
sVprofessional
p2020
g26
sVfiling
p2021
g34
sV7:30
p2022
g28
sVerred
p2023
g68
sVNortheast
p2024
g40
sVPolitical
p2025
g26
sVright-handed
p2026
g48
sVdiscovered
p2027
g54
sVfifth
p2028
g58
sVrealizing
p2029
g34
sVjolt
p2030
g32
sVonly
p2031
g286
sVinterstate
p2032
g26
sVtruly
p2033
g48
sVloath
p2034
g26
sVcannot
p2035
g647
sVcelebrate
p2036
g32
sVdenting
p2037
g34
sVseldom
p2038
g48
sVburst
p2039
g32
sVphysically
p2040
g48
sVstaged
p2041
g68
sVfanned
p2042
g54
sVelected
p2043
g68
sVnamely
p2044
g48
sVflatly
p2045
g48
sVconcern
p2046
g36
sVstaffed
p2047
g68
sVcotton-growing
p2048
g26
sV3
p2049
g98
sVbetween
p2050
g244
sVimport
p2051
g32
sVjustified
p2052
g68
sVwhipped
p2053
g54
sVanti-Colmer
p2054
g26
sVnotice
p2055
g36
sVScenic
p2056
g70
sVgarde
p2057
g109
sVcoolheaded
p2058
g26
sV7026
p2059
g28
sVmoans
p2060
g95
sVGive
p2061
g32
sVdiocesan
p2062
g26
sVenabling
p2063
g34
sVOh-the-pain-of-it
p2064
g548
sVThrough
p2065
g244
sVdowntrodden
p2066
g26
sVreluctantly
p2067
g48
sVcomes
p2068
g95
sVnearby
p2069
g26
sVexploit
p2070
g32
sVInterested
p2071
g351
sVlearning
p2072
g36
sVproved
p2073
g54
sVactually
p2074
g48
sVmuttered
p2075
g54
sVrebuild
p2076
g32
sVinformed
p2077
g68
sVwall-to-wall
p2078
g26
sVtechnical
p2079
g26
sVstems
p2080
g95
sVsuspected
p2081
g68
sVcountless
p2082
g26
sV4-0
p2083
g28
sVdeveloping
p2084
g34
sVthese
p2085
g466
sVhandicapped
p2086
g68
sVcoolest
p2087
g259
sVspooned
p2088
g54
sVlegislation-delaying
p2089
g26
sVBetter
p2090
g1917
sVcanceled
p2091
g68
sVworry
p2092
g32
sVquarter-to-quarter
p2093
g26
sVdevelop
p2094
g32
sVSixth
p2095
g275
sVpester
p2096
g32
sVfiguring
p2097
g34
sVpoetic
p2098
g26
sVnoble
p2099
g26
sVinvestigated
p2100
g54
sVclosest
p2101
g259
sVmeteorological
p2102
g26
sVfull-fledged
p2103
g26
sVmentally
p2104
g48
sVcomplained
p2105
g54
sVcharges
p2106
g73
sVconstitutional
p2107
g26
sVagreeing
p2108
g34
sVsevere
p2109
g26
sVcoordinate
p2110
g32
sVuninjured
p2111
g26
sVcharged
p2112
g68
sVslugged
p2113
g54
sVYou're
p2114
g753
sVhousehold-type
p2115
g26
sVvaluable
p2116
g26
sVtouch
p2117
g36
sVspeed
p2118
g36
sVcliffhanging
p2119
g34
sVrenewed
p2120
g54
sVstaging
p2121
g34
sVHer
p2122
g149
sVthinking
p2123
g34
sVsenseless
p2124
g26
sV9:30
p2125
g28
sVstruck
p2126
g54
sVdisproportionate
p2127
g26
sVreal
p2128
g26
sVstunk
p2129
g54
sVread
p2130
g68
sVearly
p2131
g26
sVearnest
p2132
g26
sVdetract
p2133
g32
sVusing
p2134
g34
sVrear
p2135
g26
sVruled
p2136
g54
sVheightened
p2137
g68
sVcollective
p2138
g26
sVgreeting
p2139
g36
sVannually
p2140
g48
sVbenefit
p2141
g36
sVendorsed
p2142
g68
sVceremonial
p2143
g26
sVBefore
p2144
g244
sVtwelve
p2145
g28
sVexposed
p2146
g54
sVenacting
p2147
g34
sV1859
p2148
g28
sVEarlier
p2149
g1790
sVrecorded
p2150
g68
sVconservative
p2151
g26
sVrock-strewn
p2152
g26
sVSoutheast
p2153
g40
sVnon-profit
p2154
g26
sVputted
p2155
g54
sVsixth
p2156
g58
sVequivalent
p2157
g26
sV1933
p2158
g28
sV1932
p2159
g28
sV1930
p2160
g28
sV1937
p2161
g28
sV1935
p2162
g28
sVaccommodated
p2163
g68
sVassemble
p2164
g32
sV1938
p2165
g28
sVthrow
p2166
g32
sVcentral
p2167
g26
sVGet
p2168
g32
sVall-American
p2169
g26
sVboldly
p2170
g48
sVgreatly
p2171
g48
sVover-corrected
p2172
g54
sV1,257,700
p2173
g28
sVAdd
p2174
g32
sVelementary
p2175
g26
sVshrinking
p2176
g34
sVyour
p2177
g149
sVassumed
p2178
g68
sVstart
p2179
g32
sVpoured
p2180
g54
sVlow
p2181
g48
sVseasoned
p2182
g68
sVallergic
p2183
g26
sVmid-1960
p2184
g28
sVsmuggling
p2185
g34
sVdelayed
p2186
g68
sVpitched
p2187
g54
sVtrying
p2188
g34
sVhire
p2189
g32
sVembedded
p2190
g68
sVreceptive
p2191
g26
sVAsks
p2192
g354
sVmoved
p2193
g54
sV1200
p2194
g28
sVGorgeous
p2195
g26
sVmoves
p2196
g73
sVvalid
p2197
g26
sVgambling
p2198
g34
sVyou
p2199
g216
sVpoor
p2200
g26
sVGreat
p2201
g26
sVineligible
p2202
g26
sVgoaded
p2203
g68
sVoverreach
p2204
g32
sVsuited
p2205
g68
sVfiscal
p2206
g26
sVMexican
p2207
g26
sV3-5
p2208
g28
sVModern
p2209
g40
sV3-0
p2210
g28
sVrepay
p2211
g32
sVdoubted
p2212
g54
sVsince
p2213
g244
sVpointing
p2214
g34
sVTake
p2215
g32
sVreligious
p2216
g26
sVdreadful
p2217
g26
sVpledged
p2218
g68
sVfoster
p2219
g26
sVspearhead
p2220
g32
sVfizzled
p2221
g54
sVsolicit
p2222
g32
sVvery
p2223
g122
sVI'd
p2224
VPRT
p2225
sVdecide
p2226
g32
sVI'm
p2227
VPRT
p2228
sV--
p2229
g284
sV13-1/2
p2230
g28
sVunheard
p2231
g26
sVnearing
p2232
g34
sVattributable
p2233
g26
sVLatin
p2234
g40
sVwitnessed
p2235
g68
sVSingles
p2236
g354
sVproselytizing
p2237
g34
sVblundered
p2238
g68
sVloose
p2239
g26
sVstrong
p2240
g26
sVcolored
p2241
g68
sVahead
p2242
VADV
p2243
sVinspired
p2244
g68
sVexceptionally
p2245
g122
sVamount
p2246
g36
sVadvertising
p2247
g34
sVuniquely
p2248
g48
sVmarginal
p2249
g26
sVask
p2250
g32
sVS.
p2251
g1041
sVtrained
p2252
g68
sVconventional
p2253
g26
sVtakes
p2254
g95
sValmost
p2255
g48
sVunpleasant
p2256
g26
sVtaken
p2257
g68
sVentails
p2258
g95
sVregrettable
p2259
g26
sVSo
p2260
g48
sVbroke
p2261
g54
sVmounted
p2262
g54
sVrespected
p2263
g54
sVAfterwards
p2264
g48
sVnine
p2265
g28
sVPre-inaugural
p2266
g70
sVplayable
p2267
g26
sVspontaneous
p2268
g26
sVOrchestre
p2269
g109
sVnorthernmost
p2270
g1305
sVpushed
p2271
g54
sVmagenta
p2272
g26
sVfirmly
p2273
g48
sV165-unit
p2274
g26
sVratified
p2275
g68
sVsurpassed
p2276
g68
sVhampered
p2277
g68
sVFall
p2278
g1510
sVtried
p2279
g68
sVderived
p2280
g68
sVtries
p2281
g73
sVderives
p2282
g95
sVcompulsory
p2283
g26
sVa
p2284
g127
sVtelephoned
p2285
g54
sVSweet
p2286
g40
sVovernight
p2287
g48
sVanytime
p2288
g48
sVhelp
p2289
g32
sVsoon
p2290
g48
sVheld
p2291
g68
sVgray-haired
p2292
g26
sVcarpeted
p2293
g68
sVfined
p2294
g68
sVsolving
p2295
g34
sVfruitful
p2296
g26
sVdisclosed
p2297
g54
sVthree-day
p2298
g26
sVpleads
p2299
g95
sVmotivated
p2300
g54
sVye
p2301
g216
sVanticipated
p2302
g68
sVyou've
p2303
g1130
sVsweeping
p2304
g34
sVtowering
p2305
g34
sVlinking
p2306
g34
sVthree-man
p2307
g26
sVtrailed
p2308
g68
sVfully
p2309
g48
sVstopped
p2310
g54
sVobligated
p2311
g68
sVisn't
p2312
VVERB
p2313
sVreferred
p2314
g68
sVheavy
p2315
g26
sVrestless
p2316
g26
sVbeyond
p2317
g244
sVsteered
p2318
g54
sVtaunted
p2319
g54
sVsurrounded
p2320
g68
sVmeditating
p2321
g34
sVtestify
p2322
g32
sVdominated
p2323
g68
sV7
p2324
g28
sVissue
p2325
g36
sVoutrun
p2326
g32
sVexpansive
p2327
g26
sVhoused
p2328
g68
sVfavored
p2329
g68
sVput
p2330
g54
sVearliest
p2331
g259
sVrevolutionary
p2332
g26
sVterribly
p2333
g122
sVundergo
p2334
g32
sVassign
p2335
g32
sVreflected
p2336
g68
sVcamping-out
p2337
g26
sVmiss
p2338
g32
sVinure
p2339
g32
sVwonderful
p2340
g26
sVhundred
p2341
g28
sVanti-Kennedy
p2342
g26
sVinsure
p2343
g32
sVbowed
p2344
g54
sVselling
p2345
g34
sVOddly
p2346
g48
sV1919
p2347
g28
sVtaxable
p2348
g26
sV1910
p2349
g28
sV1913
p2350
g28
sV1912
p2351
g28
sV1914
p2352
g28
sV1917
p2353
g28
sVfinancing
p2354
g34
sVassaulted
p2355
g54
sVinducted
p2356
g68
sVimpersonal
p2357
g26
sVtoward
p2358
g244
sVsentenced
p2359
g68
sVthree-building
p2360
g26
sVidentically
p2361
g48
sValongside
p2362
g244
sVsubstantial
p2363
g26
sVretracted
p2364
g68
sVflaming
p2365
g34
sVuseless
p2366
g26
sVWith
p2367
g244
sVexperienced
p2368
g68
sVplunder
p2369
g32
sVChief
p2370
g1444
sVhired
p2371
g68
sVsponsored
p2372
g68
sVThe
p2373
g127
sVEconomically
p2374
g48
sV5-5
p2375
g28
sV5-4
p2376
g28
sV5-1
p2377
g28
sV5-3
p2378
g28
sVmobile
p2379
g26
sVclear
p2380
g26
sVbroadened
p2381
g54
sVdrawing
p2382
g36
sVpart-time
p2383
g26
sVclean
p2384
g26
sVusual
p2385
g26
sVseven-hit
p2386
g26
sVfiercest
p2387
g259
sVdistressing
p2388
g26
sVreminiscent
p2389
g26
sVnorthern
p2390
g26
sV9230
p2391
g98
sVFrench
p2392
g26
sVFourteen
p2393
g28
sVsurveyed
p2394
g351
sVpretty
p2395
g26
sVensconced
p2396
g68
sVmeanwhile
p2397
g48
sVnecessitate
p2398
g32
sVfamous
p2399
g26
sVWhile
p2400
g30
sVgrew
p2401
g54
sVcompeting
p2402
g34
sVdocile
p2403
g26
sVduring
p2404
g244
sVNoted
p2405
g351
sV162-game
p2406
g26
sVboost
p2407
g36
sVRandom
p2408
g40
sVcourteous
p2409
g26
sVseventeen
p2410
g28
sVthrowing
p2411
g34
sVreminisces
p2412
g95
sVclose
p2413
g26
sVNeither
p2414
g1036
sVprobable
p2415
g26
sVwon
p2416
g68
sVprobably
p2417
g48
sVpictured
p2418
g68
sVmissing
p2419
g34
sVranked
p2420
g68
sVboth
p2421
VDET
p2422
sVwouldn't
p2423
g647
sVsensitive
p2424
g26
sVexperimental
p2425
g26
sVCertainly
p2426
g48
sVTurkish
p2427
g26
sVwhatever
p2428
g1620
sVskips
p2429
g95
sVlikes
p2430
g95
sVdescribed
p2431
g54
sVexert
p2432
g32
sVMost
p2433
g286
sVcollected
p2434
g68
sVthreaten
p2435
g32
sVbudgeted
p2436
g68
sVlived
p2437
g68
sVDiocesan
p2438
g26
sVcrack
p2439
g26
sVFlashed
p2440
g351
sVelse
p2441
g48
sVAllied
p2442
g24
sVrecalled
p2443
g54
sVbunkered
p2444
g68
sVlook
p2445
g32
sVwhile
p2446
g30
sV32,589
p2447
g28
sVanimated
p2448
g68
sVguide
p2449
g32
sValike
p2450
g48
sVclobbers
p2451
g95
sVcostly
p2452
g26
sVwell-played
p2453
g26
sVwherever
p2454
g488
sVoverlooked
p2455
g68
sVembroidered
p2456
g68
sVreads
p2457
g95
sVready
p2458
g26
sVthree-hour
p2459
g26
sVUnfortunately
p2460
g48
sVclerical
p2461
g26
sVanymore
p2462
g48
sVgrant
p2463
g32
sVbelong
p2464
g32
sVmakeshift
p2465
g26
sVgrand
p2466
g26
sVPhilharmonique
p2467
g109
sVconflict
p2468
g36
sVused
p2469
g68
sVtemporary
p2470
g26
sVcleaning
p2471
g34
sVolder
p2472
g564
sVobviously
p2473
g48
sVclears
p2474
g95
sVcoup
p2475
g109
sV767
p2476
g28
sVreviewed
p2477
g68
sVcocky
p2478
g26
sVelect
p2479
g32
sVover-the-counter
p2480
g26
sVinformal
p2481
g26
sVstatewide
p2482
g26
sVguaranteed
p2483
g68
sVquestioned
p2484
g54
sVremaining
p2485
g34
sVmarch
p2486
g36
sVlacking
p2487
g34
sVshowing
p2488
g34
sVoutright
p2489
g48
sVexcluding
p2490
g34
sVenvisioned
p2491
g68
sVstimulatory
p2492
g26
sVtranslates
p2493
g95
sVpopular
p2494
g26
sVFine
p2495
g40
sVLittle
p2496
g40
sVparade
p2497
g36
sVFears
p2498
g354
sVurgent
p2499
g26
sVtowards
p2500
g244
sV28th
p2501
g58
sVerupts
p2502
g95
sV67-year-old
p2503
g26
sV770
p2504
g28
sVdelivered
p2505
g54
sVdescribing
p2506
g34
sVAttacks
p2507
g354
sVslash
p2508
g32
sVHere's
p2509
VPRT
p2510
sVcostlier
p2511
g564
sVeating
p2512
g34
sVThey've
p2513
g1130
sVstep
p2514
g36
sVsmothered
p2515
g54
sVabroad
p2516
g48
sVreact
p2517
g32
sVtracing
p2518
g34
sVshiny
p2519
g26
sVblock
p2520
g36
sVseeing
p2521
g34
sVdecertify
p2522
g32
sVwithin
p2523
g244
sVVocational
p2524
g40
sVTheir
p2525
g149
sVbehaving
p2526
g34
sVinnate
p2527
g26
sVplacing
p2528
g34
sVcherished
p2529
g68
sVCalled
p2530
g68
sVdisallowed
p2531
g54
sVconfessing
p2532
g34
sVhimself
p2533
VPRON
p2534
sVgoverns
p2535
g95
sVregistered
p2536
g68
sVreiterated
p2537
g68
sVproperly
p2538
g48
sVwomen-trodden
p2539
g26
sVnewer
p2540
g564
sVbranch
p2541
g32
sVamateurish
p2542
g26
sVdull
p2543
g26
sVIrish
p2544
g40
sVsimilar
p2545
g26
sVordered
p2546
g68
sVreopening
p2547
g34
sVTo
p2548
g790
sV1899
p2549
g28
sVAbove
p2550
g244
sV1896
p2551
g28
sV1891
p2552
g28
sVnab
p2553
g32
sVamounts
p2554
g95
sVnabbed
p2555
g68
sVelectrical
p2556
g26
sVjesting
p2557
g34
sVwished
p2558
g54
sVdraw
p2559
g32
sVvenerable
p2560
g26
sVreportedly
p2561
g48
sVvisits
p2562
g354
sVrested
p2563
g54
sV1947-49
p2564
g28
sVrestrained
p2565
g351
sVstructure
p2566
g36
sVrevamped
p2567
g351
sVcorrelated
p2568
g68
sVAh
p2569
g548
sVrequired
p2570
g68
sVAl
p2571
g664
sVAn
p2572
g127
sVAs
p2573
g244
sVAt
p2574
g244
sVApparently
p2575
g48
sVsounded
p2576
g54
sVgo
p2577
g32
sVcompact
p2578
g26
sVReturning
p2579
g34
sVstave
p2580
g32
sVripened
p2581
g54
sVNot
p2582
g1934
sVNow
p2583
g48
sVfriendly
p2584
g26
sVNor
p2585
g1036
sVCanadian
p2586
g26
sV1792
p2587
g28
sVtelling
p2588
g34
sVstiff
p2589
g26
sVcompassionate
p2590
g26
sVwatered
p2591
g68
sVenforce
p2592
g32
sVcompensated
p2593
g68
sV220-yard
p2594
g26
sVjump
p2595
g32
sVpicked
p2596
g54
sVTeaching
p2597
g34
sVhonors
p2598
g73
sVplays
p2599
g95
sVmarketed
p2600
g68
sVevoked
p2601
g68
sVSnapped
p2602
g54
sV;
p2603
g284
sVLocked
p2604
g351
sVcommercial
p2605
g26
sVfifteenth
p2606
g58
sVGreek
p2607
g26
sVGreen
p2608
g40
sVPublished
p2609
g68
sVconvert
p2610
g32
sVBack
p2611
g681
sVwhisking
p2612
g34
sVweren't
p2613
VVERB
p2614
sV646
p2615
g28
sV'49
p2616
g28
sVmerited
p2617
g54
sVclaim
p2618
g32
sVwin
p2619
g32
sV29-5
p2620
g28
sVaddressed
p2621
g68
sVinfest
p2622
g32
sVsinging
p2623
g34
sVmanipulate
p2624
g32
sVannounced
p2625
g54
sVenterprisingly
p2626
g48
sVremains
p2627
g95
sVcongratulated
p2628
g68
sVsubsidized
p2629
g68
sVpopped
p2630
g54
sVformally
p2631
g48
sVstarted
p2632
g54
sVbecomes
p2633
g95
sVtestified
p2634
g54
sVcharming
p2635
g26
sVAfro-Cuban
p2636
g26
sVappointed
p2637
g68
sVarched
p2638
g68
sVannouncing
p2639
g34
sVride
p2640
g32
sVcrossed
p2641
g54
sVmeet
p2642
g32
sVCites
p2643
g354
sVcontrol
p2644
g36
sVunveiled
p2645
g68
sVPretty
p2646
g122
sVrejoining
p2647
g34
sVescaped
p2648
g54
sVinviolate
p2649
g26
sVsought
p2650
g68
sVLovely
p2651
g26
sVstemmed
p2652
g54
sVboasting
p2653
g34
sVdefective
p2654
g26
sVlocated
p2655
g68
sVreestablish
p2656
g32
sVAssisting
p2657
g34
sVanti-organization
p2658
g26
sVBritish
p2659
g26
sVRoman
p2660
g26
sVfouled
p2661
g54
sV12-17
p2662
g28
sVfeels
p2663
g95
sVMiddle
p2664
g40
sV10:45
p2665
g28
sVDallas-based
p2666
g26
sVboils
p2667
g95
sVwon't
p2668
g647
sVmentioned
p2669
g68
sVconverting
p2670
g34
sVAnti-Communist
p2671
g26
sVwellknown
p2672
g26
sVnine-game
p2673
g26
sVTwo
p2674
g28
sVhandy
p2675
g26
sVSupreme
p2676
g40
sVcrossing
p2677
g34
sVUse
p2678
g32
sVshaking
p2679
g34
sVupward
p2680
g48
sVIdeally
p2681
g48
sVaggravates
p2682
g95
sV704
p2683
g98
sVpaid-for
p2684
g26
sVinverted
p2685
g68
sVmar
p2686
g32
sVseparating
p2687
g34
sVspecial
p2688
g26
sVsecretly
p2689
g48
sVlukewarm
p2690
g26
sVpeace-loving
p2691
g26
sVBeginning
p2692
g34
sV33-man
p2693
g26
sV1630
p2694
g98
sVstepped-up
p2695
g26
sVhumiliating
p2696
g26
sVUrged
p2697
g351
sVattending
p2698
g34
sVcompletely
p2699
g122
sVFundamental
p2700
g40
sV20,000
p2701
g28
sVresumed
p2702
g54
sV56-yard
p2703
g26
sVdetermining
p2704
g34
sVroute
p2705
g36
sVrushed
p2706
g68
sVkeep
p2707
g32
sVtimed
p2708
g68
sVdesigned
p2709
g68
sVprospective
p2710
g26
sVsucceeds
p2711
g95
sVManaging
p2712
g737
sVpossessing
p2713
g34
sVpowerful
p2714
g26
sVunsupported
p2715
g26
sVdate
p2716
g36
sVstultifying
p2717
g34
sVfour-hour
p2718
g26
sVprecisely
p2719
g48
sVyou're
p2720
g753
sVnon-partisan
p2721
g26
sVCorporate
p2722
g70
sVdurable
p2723
g26
sVadopted
p2724
g68
sVattack
p2725
g36
sVfinal
p2726
g26
sVprone
p2727
g26
sVexactly
p2728
g48
sVlists
p2729
g354
sVherself
p2730
g2534
sV5-run
p2731
g26
sVwell-established
p2732
g26
sVsubmitted
p2733
g68
sVmaybe
p2734
g48
sVdumb
p2735
g26
sVproviding
p2736
g34
sVdistinguished
p2737
g68
sVbet
p2738
g32
sVenforced
p2739
g68
sVthwarted
p2740
g68
sVlightly
p2741
g122
sVunchanged
p2742
g26
sVrecessed
p2743
g68
sVOther
p2744
g286
sVneed
p2745
g36
sVpursued
p2746
g54
sVable
p2747
g26
sVpurchasing
p2748
g34
sVpivotal
p2749
g26
sVDecorating
p2750
g34
sV7-day
p2751
g26
sVaxiomatic
p2752
g26
sVsewing
p2753
g34
sVolive-green
p2754
g26
sVexpired
p2755
g54
sVUltimately
p2756
g48
sVscrambled
p2757
g54
sVindoor
p2758
g26
sVanyway
p2759
g48
sVhalting
p2760
g34
sVparked
p2761
g68
sVcatapulted
p2762
g68
sVPublic
p2763
g40
sVbased
p2764
g68
sVearned
p2765
g68
sV(
p2766
g284
sVhopeful
p2767
g70
sVthunderous
p2768
g26
sVemployed
p2769
g68
sVachieve
p2770
g32
sVemphasizes
p2771
g95
sV120
p2772
g28
sVjoint
p2773
g36
sVlegitimate
p2774
g26
sV126
p2775
g28
sV127
p2776
g28
sVItalian
p2777
g26
sVgray
p2778
g26
sVshe
p2779
VPRON
p2780
sVcontain
p2781
g32
sVgrab
p2782
g32
sVpreach
p2783
g32
sVspotted
p2784
g54
sVcomputed
p2785
g68
sV34.7
p2786
g28
sVSend
p2787
g32
sVfreeze
p2788
g32
sVaccused
p2789
g68
sVdesperate
p2790
g26
sVoperated
p2791
g68
sVSent
p2792
g351
sVGaining
p2793
g34
sVGood
p2794
g40
sVillusory
p2795
g26
sVsouthward
p2796
g48
sVtend
p2797
g32
sVstate
p2798
g36
sVsupernatural
p2799
g26
sVcorrectly
p2800
g48
sVallotted
p2801
g68
sVneither
p2802
g1036
sVCould
p2803
g1345
sVcomparable
p2804
g26
sVsorely
p2805
g48
sVkicking
p2806
g34
sVkey
p2807
g36
sVundetermined
p2808
g26
sVhits
p2809
g73
sVyear-round
p2810
g26
sVa.m.
p2811
g48
sVpublicized
p2812
g68
sVcordial
p2813
g26
sVtoneless
p2814
g26
sVrat-a-tat-tatty
p2815
g26
sVquit
p2816
g32
sVslowly
p2817
g48
sVtreat
p2818
g32
sV4,441
p2819
g28
sVcontrolled
p2820
g54
sVours
p2821
VPRON
p2822
sVkicks
p2823
g95
sVConsequently
p2824
g48
sVThat's
p2825
VPRT
p2826
sVAnd
p2827
g1036
sVnovel
p2828
g26
sVharder
p2829
g1790
sVchalk
p2830
g32
sVRusty
p2831
g40
sVowns
p2832
g95
sVcornering
p2833
g34
sVAny
p2834
g1776
sVexamined
p2835
g54
sVswinging
p2836
g34
sVYou
p2837
g216
sVbegan
p2838
g54
sVcaptivated
p2839
g68
sVstrange
p2840
g26
sVover-all
p2841
g26
sVincumbent
p2842
g26
sVunderground
p2843
g48
sVtapped
p2844
g54
sVunconventional
p2845
g26
sVreactionary
p2846
g26
sVrightfully
p2847
g48
sVabsorb
p2848
g32
sV1-3
p2849
g28
sVeffect
p2850
g36
sVnightly
p2851
g48
sVdiscouraged
p2852
g68
sVfierce
p2853
g26
sVfrequently
p2854
g48
sVimpeccable
p2855
g26
sVscarcely
p2856
g48
sVwell
p2857
g122
sVadvertises
p2858
g95
sV45
p2859
g28
sVBy-passing
p2860
g34
sVincreasingly
p2861
g48
sV42
p2862
g28
sVaccurate
p2863
g26
sVliked
p2864
g54
sV43
p2865
g28
sV7,000
p2866
g28
sVheaded
p2867
g68
sVkilled
p2868
g68
sVextends
p2869
g95
sVsubordinated
p2870
g68
sVDespite
p2871
g244
sVought
p2872
g220
sVBy
p2873
g244
sVkick
p2874
g32
sVclouded
p2875
g351
sVintimated
p2876
g54
sVdefinitive
p2877
g26
sVdevised
p2878
g68
sVdrought-seared
p2879
g26
sVcrushed
p2880
g54
sVhistoric
p2881
g26
sVcanted
p2882
g68
sVimmediately
p2883
g48
sVjockeying
p2884
g34
sVprominent
p2885
g26
sVnecessary
p2886
g26
sVlost
p2887
g54
sVpolitely
p2888
g48
sVlose
p2889
g32
sVdrizzly
p2890
g26
sVwarmed
p2891
g54
sVO'Clock
p2892
g681
sVbelonged
p2893
g54
sVmoderates
p2894
g95
sVsolicits
p2895
g95
sVbroad
p2896
g26
sVobjected
p2897
g54
sVHowever
p2898
g488
sVsponsoring
p2899
g34
sV?
p2900
g284
sVRed-prone
p2901
g26
sVstartling
p2902
g26
sVOfficial
p2903
g26
sVmonetary
p2904
g26
sV17,000
p2905
g28
sVrecognized
p2906
g68
sVInsuring
p2907
g34
sVequally
p2908
g48
sVpreviously
p2909
g48
sVdoubtless
p2910
g48
sVadditional
p2911
g26
sVlagged
p2912
g54
sVrelegated
p2913
g68
sVnoticed
p2914
g54
sVinner
p2915
g26
sVdivulging
p2916
g34
sVcrushing
p2917
g34
sV2-3/4
p2918
g28
sVevacuate
p2919
g32
sVneutral
p2920
g26
sVgain
p2921
g36
sVhighest
p2922
VADJ
p2923
sVhe
p2924
g2780
sVIndustrial
p2925
g40
sVhead-and-shoulders
p2926
g122
sVsigned
p2927
g54
sVconverted
p2928
g68
sVlimit
p2929
g36
sVleathery
p2930
g26
sVdisplay
p2931
g36
sVurging
p2932
g34
sVresented
p2933
g54
sVoffensive
p2934
g26
sVBesides
p2935
g48
sVFingered
p2936
VVERB
p2937
sVLike
p2938
g30
sVemerges
p2939
g95
sV2.21.6
p2940
g28
sVstay
p2941
g32
sVagonizing
p2942
g26
sVappoint
p2943
g32
sVshuns
p2944
g95
sV85-piece
p2945
g26
sVcame
p2946
g54
sVpersistent
p2947
g26
sVlives
p2948
g95
sVaided
p2949
g54
sVfour-year
p2950
g26
sVdynamic
p2951
g26
sVplenary
p2952
g26
sVabide
p2953
g32
sVpro-Communist
p2954
g26
sVwhose
p2955
VDET
p2956
sVcontained
p2957
g68
sVpresents
p2958
g95
sVteaching
p2959
g34
sVsway
p2960
g32
sVupdated
p2961
g68
sVrescue
p2962
g36
sVdownstream
p2963
g48
sVnourished
p2964
g68
sVgovern
p2965
g32
sVaffect
p2966
g32
sVcourageous
p2967
g26
sVvast
p2968
g26
sVbaking
p2969
g34
sVstrayed
p2970
g54
sVOK
p2971
g26
sVgreenish
p2972
g26
sVheading
p2973
g34
sVforce
p2974
g32
sVlikely
p2975
g26
sVeven
p2976
g122
sVPut
p2977
g32
sVnew
p2978
g26
sVundisputed
p2979
g26
sVmaverick
p2980
g26
sVsidled
p2981
g54
sVdeemed
p2982
g68
sVmea
p2983
g109
sVnever
p2984
g48
sVdrew
p2985
g54
sVmet
p2986
g68
sV108
p2987
g28
sVactive
p2988
g26
sV100
p2989
g28
sVaren't
p2990
VVERB
p2991
sVinterpret
p2992
g32
sV545-yard
p2993
g26
sVRounded
p2994
g68
sVtaper
p2995
g32
sVHail
p2996
g1510
sVignoring
p2997
g34
sVcredit
p2998
g36
sVpermit
p2999
g32
sVsuitable
p3000
g26
sVfantastic
p3001
g26
sVcampaign
p3002
g36
sVRather
p3003
g244
sVschooling
p3004
g34
sVsliced
p3005
g54
sVAlso
p3006
g48
sVdecried
p3007
g54
sVmoral
p3008
g26
sVgod-like
p3009
g26
sVhead-on
p3010
g48
sVoverhead
p3011
g36
sVcalm
p3012
g32
sVhand-screened
p3013
g26
sVrecommend
p3014
g32
sVsurvive
p3015
g32
sVtell
p3016
g32
sVunder
p3017
g244
sVwarn
p3018
g32
sVwarm
p3019
g26
sVgive
p3020
g32
sVinvolve
p3021
g32
sV10,000
p3022
g28
sVtitular
p3023
g26
sVamazing
p3024
g26
sVanswer
p3025
g32
sVmassive
p3026
g26
sVcrowding
p3027
g34
sVundergoing
p3028
g34
sVvicious
p3029
g26
sVpurchase
p3030
g32
sVAll
p3031
g583
sVthird
p3032
g58
sVCivil
p3033
g40
sVmaintain
p3034
g32
sVfrequent
p3035
g26
sVoperate
p3036
g32
sVBlue
p3037
g40
sVAncient
p3038
g40
sVinconclusive
p3039
g26
sVghastly
p3040
g26
sVbefore
p3041
g30
sVscoring
p3042
g34
sVfun-loving
p3043
g26
sVpersonal
p3044
g26
sV,
p3045
g284
sVanemic
p3046
g26
sVbetter
p3047
g564
sVCutting
p3048
g34
sVdifferently
p3049
g48
sVenlisted
p3050
g54
sVovercome
p3051
g68
sVfringed
p3052
g68
sVIndeed
p3053
VADV
p3054
sVarrested
p3055
g68
sVPlanning
p3056
g737
sVleaned
p3057
g54
sVwage
p3058
g32
sVwent
p3059
g54
sVpepping
p3060
g34
sVCheck
p3061
g32
sVmean
p3062
g32
sVdour
p3063
g26
sVtaught
p3064
g54
sVtrading
p3065
g34
sVshirking
p3066
g34
sVfirst-class
p3067
g26
sVscoreless
p3068
g26
sVrestricted
p3069
g68
sVcrucial
p3070
g70
sVrevolving
p3071
g1356
sVMust
p3072
g1345
sV240
p3073
g28
sVlogging
p3074
g34
sV3.98
p3075
g28
sVstarts
p3076
g73
sVprodigal
p3077
g26
sVmoving
p3078
g34
sVloud
p3079
g26
sVnaughty
p3080
g26
sVfeatures
p3081
g95
sVfeatured
p3082
g68
sVsnubbing
p3083
g34
sVacquaint
p3084
g32
sVrecruiting
p3085
g34
sVwitnessing
p3086
g34
sVCommandeering
p3087
g34
sVsolemnly
p3088
g48
sVseverly
p3089
g122
sVsomewhat
p3090
g122
sVpeculiar
p3091
g26
sVbegins
p3092
g95
sVconforms
p3093
g95
sVenabled
p3094
g54
sVElected
p3095
g68
sVsilly
p3096
g26
sVclerical-lay
p3097
g26
sVsees
p3098
g95
sVmodern
p3099
g26
sVmine
p3100
g36
sVall-time
p3101
g26
sVemphasizing
p3102
g34
sVseen
p3103
g68
sVseem
p3104
g32
sVseek
p3105
g32
sVtells
p3106
g95
sVinefficient
p3107
g26
sVIncidentally
p3108
g48
sVregular
p3109
g26
sVassisting
p3110
g34
sVmedical
p3111
g26
sVPhilippine
p3112
g26
sVbreathes
p3113
g95
sVdefinitely
p3114
g48
sVunanimously
p3115
g48
sVamending
p3116
g34
sV13-5
p3117
g28
sVLiving
p3118
g737
sVprobe
p3119
g32
sVending
p3120
g34
sVchartered
p3121
g68
sVstepping
p3122
g34
sVresisting
p3123
g34
sVexplain
p3124
g32
sVjudged
p3125
g68
sVintegrate
p3126
g32
sVwearing
p3127
g34
sVpraised
p3128
g54
sVcolorful
p3129
g26
sVstop
p3130
g32
sVLeave
p3131
g32
sVtiled
p3132
g68
sVSoutheastern
p3133
g40
sVearn
p3134
g32
sVbar
p3135
g218
sV17
p3136
g28
sVOver
p3137
g244
sVbad
p3138
g26
sVfavors
p3139
g95
sVethical
p3140
g26
sVdecides
p3141
g95
sVHandicapped
p3142
g24
sVhand-crafted
p3143
g26
sVtesting
p3144
g34
sVdecided
p3145
g54
sVvented
p3146
g68
sVsaid
p3147
g54
sVinappropriate
p3148
g26
sVartificial
p3149
g26
sVthere's
p3150
g1406
sVsimplest
p3151
g259
sVlazy
p3152
g26
sVCentral
p3153
g40
sVweary
p3154
g70
sVtripled
p3155
g54
sVpicking
p3156
g34
sVsuggested
p3157
g54
sV31978
p3158
g98
sVresistant
p3159
g26
sVagainst
p3160
g244
sVjotted
p3161
g68
sVconfronted
p3162
g68
sVpresumably
p3163
g48
sVappeared
p3164
g54
sVeulogized
p3165
g68
sVloaded
p3166
g68
sVputt
p3167
g36
sVproceeded
p3168
g54
sVputs
p3169
g95
sVthree
p3170
g28
sVtiny
p3171
g26
sV8,280
p3172
g82
sVbasic
p3173
g26
sVentered
p3174
g54
sVlovely
p3175
g26
sVthrew
p3176
g54
sVdeeper
p3177
g564
sVdismiss
p3178
g32
sV169
p3179
g28
sVpersonally
p3180
g48
sVClaims
p3181
g354
sVregretted
p3182
g54
sV160
p3183
g28
sVEnforce
p3184
g218
sVCan't
p3185
g647
sVReputedly
p3186
g48
sVAthletic
p3187
g40
sVInto
p3188
g244
sVspontaneously
p3189
g48
sVugly
p3190
g26
sV27-year-old
p3191
g26
sVPersian
p3192
g26
sVseven
p3193
g28
sV2731
p3194
g98
sVmetropolitan
p3195
g26
sVNae
p3196
g48
sVis
p3197
VVERB
p3198
sVit
p3199
g2780
sVdefeated
p3200
g54
sVin
p3201
g244
sVfaked
p3202
g68
sVif
p3203
g30
sVgrown
p3204
g68
sV4-year
p3205
g26
sV2,700,877
p3206
g28
sVmake
p3207
g32
sVRegional
p3208
g26
sVspeculating
p3209
g34
sVbottled
p3210
g68
sVpotentially
p3211
g48
sVworld-famous
p3212
g26
sVconfronting
p3213
g34
sVentitled
p3214
g68
sVmeets
p3215
g354
sV677
p3216
g28
sVoff-duty
p3217
g26
sVdeclaring
p3218
g34
sVdelight
p3219
g32
sVUsually
p3220
g48
sVhe'll
p3221
g125
sVpracticed
p3222
g54
sVfailing
p3223
g34
sVpractices
p3224
g73
sVvirile
p3225
g26
sV800
p3226
g28
sV60-inch
p3227
g26
sVleft
p3228
g54
sVfacto
p3229
g109
sVjust
p3230
g48
sVversed
p3231
g26
sVsporting
p3232
g34
sVunfair
p3233
g26
sVassigned
p3234
g68
sVyear-old
p3235
g26
sVhuman
p3236
g26
sVyet
p3237
g48
sV1776
p3238
g28
sVregarded
p3239
g54
sVroyal
p3240
g26
sVdefray
p3241
g32
sVsave
p3242
g32
sVboasted
p3243
g54
sVwhichever
p3244
g1620
sV6-3-3
p3245
g28
sVwanting
p3246
g34
sVlow-down
p3247
g26
sVperforming
p3248
g34
sVmanual
p3249
g26
sVunnecessary
p3250
g26
sVdisillusioned
p3251
g68
sVAre
p3252
VVERB
p3253
sVnotorious
p3254
g26
sVdeal
p3255
g32
sVdeaf
p3256
g26
sVsomehow
p3257
g48
sVelderly
p3258
g26
sVtheatrical
p3259
g26
sVdense
p3260
g26
sVcollect
p3261
g32
sVoutspoken
p3262
g26
sVQuite
p3263
g122
sVDaily
p3264
g40
sVParticipating
p3265
g34
sVtranslated
p3266
g68
sVsuper
p3267
g26
sVwould
p3268
g220
sVflourishes
p3269
g95
sVcommit
p3270
g32
sVdouble-bogeyed
p3271
g54
sVautomatically
p3272
g48
sVformerly
p3273
g48
sVamounted
p3274
g54
sVbirdied
p3275
g54
sVintellectual
p3276
g26
sVdown
p3277
g1082
sVlies
p3278
g95
sVerrs
p3279
g354
sVinitial
p3280
g26
sVlampoon
p3281
g32
sVvacated
p3282
g68
sVoffering
p3283
g36
sVsome
p3284
g1776
sVfore
p3285
g48
sVfeminine
p3286
g26
sV229
p3287
g98
sVGolden
p3288
g40
sVSeventeen
p3289
g28
sVattached
p3290
g68
sVeconomic
p3291
g26
sVoriginating
p3292
g34
sVstrengthening
p3293
g36
sVPublishing
p3294
g737
sVclassic
p3295
g26
sVtoss
p3296
g32
sVall-woman
p3297
g26
sVcovers
p3298
g95
sVmediocre
p3299
g26
sVcommuting
p3300
g34
sVmarking
p3301
g34
sVdiscriminate
p3302
g32
sVauthoritative
p3303
g26
sVgenerally
p3304
g48
sVhanded
p3305
g68
sVanswerable
p3306
g26
sVadjourning
p3307
g34
sVRomantic
p3308
g26
sVdies
p3309
g95
sVfelt
p3310
g54
sVfell
p3311
g54
sVexported
p3312
g68
sVdied
p3313
g54
sVbillion
p3314
g28
sVConstant
p3315
g70
sVdaily
p3316
g26
sVSecond
p3317
g58
sVauspiciously
p3318
g48
sVmanaged
p3319
g54
sV11-year
p3320
g26
sVskip
p3321
g32
sVrelieve
p3322
g32
sV21st
p3323
g58
sVdepend
p3324
g32
sV228-229
p3325
g98
sVanswered
p3326
g68
sVfinally
p3327
g48
sV14-power
p3328
g26
sVmarks
p3329
g95
sVsuffered
p3330
g54
sVbogeyed
p3331
g54
sVPlus
p3332
g681
sVadvised
p3333
g68
sVWhere
p3334
g488
sVpious
p3335
g26
sVmaterialize
p3336
g32
sVdid
p3337
VVERB
p3338
sVdie
p3339
g32
sVeconomize
p3340
g32
sVaccidentally
p3341
g48
sVround
p3342
g36
sVtalked
p3343
g54
sVdealing
p3344
g34
sVrun
p3345
g36
sV6:15
p3346
g28
sVadds
p3347
g95
sVsuspect
p3348
g32
sVinternational
p3349
g26
sVfilled
p3350
g68
sVForever
p3351
g681
sVclerk
p3352
g36
sVvictimized
p3353
g68
sVConceding
p3354
g34
sV6-foot-10
p3355
g26
sV18,792
p3356
g28
sVwait
p3357
g36
sVbattling
p3358
g34
sVinstitute
p3359
g32
sVshift
p3360
g32
sVSleeping
p3361
g737
sVsimultaneous
p3362
g26
sVapartment-building
p3363
g26
sVall-out
p3364
g26
sVteenage
p3365
g26
sVuseful
p3366
g26
sVWhee
p3367
g548
sVmerely
p3368
g48
sVWhen
p3369
g488
sVPurchasing
p3370
g737
sVlicensing
p3371
g34
sVailing
p3372
g34
sVsympathetic
p3373
g26
sVsalting
p3374
g34
sVvisit
p3375
g32
sVpalmed
p3376
g68
sVpert
p3377
g26
sVthru
p3378
g244
sVsharing
p3379
g34
sVacceptable
p3380
g26
sVforswears
p3381
g95
sVfly
p3382
g36
sVreelected
p3383
g68
sVPacific
p3384
g40
sV9th
p3385
g58
sVgrowing
p3386
g34
sVmaking
p3387
g34
sVarrive
p3388
g32
sVnearest
p3389
g244
sVcrazy
p3390
g26
sVpredict
p3391
g32
sVDemocratic-sponsored
p3392
g26
sVbattered
p3393
g68
sVIssue
p3394
g218
sVpink
p3395
g26
sVstrikingly
p3396
g122
sVpure
p3397
g26
sVrevolutionized
p3398
g68
sVguarantee
p3399
g32
sV145
p3400
g28
sV142
p3401
g98
sVmay
p3402
g220
sV149
p3403
g28
sVmad
p3404
g26
sVscalloped
p3405
g68
sVgrow
p3406
g32
sVrelinquish
p3407
g32
sVoutline
p3408
g32
sV16,000
p3409
g28
sV6th
p3410
g58
sVavant
p3411
g109
sVfinned
p3412
g54
sVon-the-scene
p3413
g26
sVtall
p3414
g26
sVtalk
p3415
g32
sVnearly
p3416
g48
sVpointed
p3417
g54
sVshaky
p3418
g26
sVshake
p3419
g32
sVargued
p3420
g54
sVthank
p3421
g32
sVinteresting
p3422
g26
sVcoaching
p3423
g34
sVlisting
p3424
g34
sVmail
p3425
g32
sVmain
p3426
g1305
sVfinance
p3427
g32
sVtucked
p3428
g68
sVviews
p3429
g73
sVsooner
p3430
g1790
sVShe
p3431
g2780
sVTwenty-one-year-old
p3432
g26
sVpossess
p3433
g32
sV14.2
p3434
g28
sVSouthwestern
p3435
g40
sV823
p3436
g98
sVinhomogeneous
p3437
g26
sVSplit
p3438
g68
sVpreaching
p3439
g34
sVliving
p3440
g34
sVsocialized
p3441
g68
sV3rd
p3442
g275
sVSuccessful
p3443
g40
sV14-term
p3444
g26
sVnominal
p3445
g26
sVdominate
p3446
g32
sVcorrect
p3447
g32
sVearlier
p3448
g1790
sVSometimes
p3449
g48
sVforbids
p3450
g95
sVadvance
p3451
g32
sVBeing
p3452
g695
sVcontented
p3453
g68
sVElder
p3454
g1917
sVBake
p3455
g32
sVthink
p3456
g32
sVwaited
p3457
g54
sVfirst
p3458
g58
sVexotic
p3459
g26
sVfleeing
p3460
g34
sVfast
p3461
g26
sVsuspended
p3462
g68
sVcarry
p3463
g32
sVProbably
p3464
g48
sVdischarged
p3465
g54
sVlittle
p3466
g286
sVfiery
p3467
g26
sVPolytechnic
p3468
g40
sVspeaking
p3469
g34
sVgaudy
p3470
g26
sVmining
p3471
g34
sVadjourned
p3472
g54
sVallegedly
p3473
g122
sVstreaked
p3474
g54
sVcontinuous
p3475
g26
sVbroadcast
p3476
g36
sVcourt-length
p3477
g26
sV13-8
p3478
g28
sVundoubtedly
p3479
g48
sV11
p3480
g28
sV10
p3481
g28
sV13
p3482
g28
sV12
p3483
g28
sV15
p3484
g28
sV14
p3485
g28
sVsailing
p3486
g34
sV16
p3487
g82
sV19
p3488
g28
sV18
p3489
g28
sV61st
p3490
g275
sVprotected
p3491
g351
sVwere
p3492
VVERB
p3493
sVgigantic
p3494
g26
sVgathering
p3495
g36
sVHe's
p3496
g991
sVGrand
p3497
g40
sVhard-hit
p3498
g26
sVnorth-bound
p3499
g26
sVvoiced
p3500
g68
sVoccupied
p3501
g68
sVDo
p3502
g1645
sVefficient
p3503
g26
sVDe
p3504
g664
sVshocked
p3505
g68
sVpotential
p3506
g36
sVinterior
p3507
g26
sVDu
p3508
g109
sVswitching
p3509
g34
sV1,253
p3510
g28
sV1,700
p3511
g28
sV200
p3512
g28
sVamiable
p3513
g26
sV206
p3514
g28
sVrecord-tying
p3515
g26
sVpaid
p3516
g68
sV380-foot
p3517
g26
sVcoveted
p3518
g68
sVconspicuous
p3519
g26
sVradioactive
p3520
g26
sVespecially
p3521
g48
sVsurprising
p3522
g34
sVmulti-product
p3523
g26
sVswift-striding
p3524
g26
sVAccounting
p3525
g34
sVshot
p3526
g36
sVshow
p3527
g36
sVcontemporary
p3528
g26
sVnew-rich
p3529
g26
sVWe
p3530
g216
sVbehind
p3531
g244
sV9,273
p3532
g28
sVblack
p3533
g26
sVCommenting
p3534
g34
sVget
p3535
g32
sVcontracts
p3536
g73
sVdesignated
p3537
g68
sVsatisfied
p3538
g68
sVspraying
p3539
g34
sVhailed
p3540
g54
sVunconsciously
p3541
g48
sVdistinctly
p3542
g48
sVsecondary
p3543
g26
sVdeducted
p3544
g54
sVyield
p3545
g36
sVrequesting
p3546
g34
sVruddy
p3547
g122
sVfinishing
p3548
g34
sVdeclared
p3549
g54
sVpro-Yankee
p3550
g26
sVrelative
p3551
g26
sVVital
p3552
g26
sVdeclares
p3553
g95
sVeliminating
p3554
g34
sVHopefully
p3555
g48
sVwonder
p3556
g32
sVindicted
p3557
g68
sVsatisfying
p3558
g26
sVforecast
p3559
g68
sVenough
p3560
g286
sVreading
p3561
g34
sVacross
p3562
g244
sVaugust
p3563
g26
sVcrucified
p3564
g54
sVkilling
p3565
g34
sVEach
p3566
g140
sVenthralling
p3567
g26
sVsignaled
p3568
g54
sVtuck
p3569
g32
sVaccording
p3570
g244
sVskiddy
p3571
g26
sVdated
p3572
g68
sVtraded
p3573
g68
sVamong
p3574
g244
sV12:01
p3575
g28
sV15-year-old
p3576
g26
sVpossessive
p3577
g26
sVcancel
p3578
g32
sVspecializing
p3579
g34
sVunusual
p3580
g26
sVcapable
p3581
g26
sVborders
p3582
g95
sV402
p3583
g28
sVshopping
p3584
g34
sVoffered
p3585
g68
sVglanced
p3586
g54
sVdangerous
p3587
g26
sVdramatic
p3588
g26
sVScotch
p3589
g40
sVthose
p3590
g466
sVsound
p3591
g26
sVValuable
p3592
g40
sVpromising
p3593
g26
sVinvestigating
p3594
g34
sVeventually
p3595
g48
sVwinless
p3596
g26
sVsleeping
p3597
g34
sVsprained
p3598
g68
sVsudden
p3599
g26
sVdangerously
p3600
g48
sV87th
p3601
g58
sVdifferent
p3602
g26
sVharsh
p3603
g26
sVpay
p3604
g32
sVsame
p3605
g286
sVpad
p3606
g32
sVstruggling
p3607
g34
sVextended
p3608
g68
sVassist
p3609
g32
sVrunning
p3610
g34
sVclimbing
p3611
g34
sVtotally
p3612
g122
sV5835
p3613
g28
sVlargely
p3614
g48
sVroughly
p3615
g48
sVaeronautical
p3616
g26
sVsolve
p3617
g218
sVconsisted
p3618
g54
sV1,065
p3619
g28
sVunofficial
p3620
g26
sVdipped
p3621
g54
sV4
p3622
g28
sVAlthough
p3623
g30
sVwhite-clad
p3624
g26
sVextensive
p3625
g26
sVheavier
p3626
g564
sVshapeless
p3627
g26
sVadmitting
p3628
g34
sVaiming
p3629
g34
sVserves
p3630
g95
sVfacing
p3631
g34
sVeither
p3632
g1036
sVMoreover
p3633
g48
sVvoluntarily
p3634
g48
sVerase
p3635
g32
sVspecified
p3636
g68
sVNew
p3637
g40
sVorganizing
p3638
g34
sVmatching
p3639
g34
sVgross
p3640
g36
sVconfirm
p3641
g32
sVcolonial
p3642
g26
sVfooting
p3643
g34
sVoverly
p3644
g122
sVpioneer
p3645
g32
sVcritical
p3646
g26
sVinject
p3647
g32
sVexpressing
p3648
g34
sVmoderate
p3649
g26
sVmeasuring
p3650
g34
sVconsidering
p3651
g34
sVmanufactured
p3652
g68
sVnotable
p3653
g26
sVbroken
p3654
g68
sVGoodbye
p3655
g548
sVarithmetical
p3656
g26
sVsquarely
p3657
g48
sVconducting
p3658
g34
sVpreoccupied
p3659
g68
sVmeaning
p3660
g36
sVpractical
p3661
g26
sVprovisional
p3662
g26
sVquietly
p3663
g48
sVstrip
p3664
g36
sVThough
p3665
g30
sVdowned
p3666
g54
sV1733
p3667
g98
sVtotalitarian
p3668
g26
sV4:30
p3669
g28
sVdecisive
p3670
g26
sVpretends
p3671
g95
sVindorsed
p3672
g54
sVbipartisan
p3673
g26
sVsophisticated
p3674
g26
sVwiping
p3675
g34
sVbelated
p3676
g26
sVspice
p3677
g32
sVarranged
p3678
g54
sVwasn't
p3679
VVERB
p3680
sVleaked
p3681
g54
sVgeriatric
p3682
g26
sVneutralized
p3683
g68
sVdeep
p3684
g48
sVgeneral
p3685
g26
sV87-1/2
p3686
g28
sVexamine
p3687
g32
sVgarrulous
p3688
g26
sVfill
p3689
g32
sVagain
p3690
g48
sVretiring
p3691
g34
sVfield
p3692
g36
sVTooling
p3693
g34
sVimportant
p3694
g26
sVequitable
p3695
g26
sV480
p3696
g28
sVresembled
p3697
g54
sVpitifully
p3698
g48
sVremote
p3699
g26
sVdriving
p3700
g34
sVcollegiate
p3701
g26
sVspills
p3702
g95
sVresembles
p3703
g95
sVhusky
p3704
g26
sVstarting
p3705
g34
sVrepresent
p3706
g32
sVforget
p3707
g32
sVwormy
p3708
g26
sVsuburban
p3709
g26
sVfounded
p3710
g68
sVcooperative
p3711
g26
sVtalks
p3712
g73
sVduplicated
p3713
g68
sVcrimson
p3714
g26
sVreturning
p3715
g34
sVDon't
p3716
VVERB
p3717
sVworded
p3718
g68
sV2,963
p3719
g28
sVeconomically
p3720
g48
sVtitled
p3721
g68
sVportable
p3722
g26
sVActually
p3723
g48
sVOnly
p3724
g48
sVfurther
p3725
g564
sVstood
p3726
g54
sV2544
p3727
g98
sVwrecked
p3728
g54
sVovershot
p3729
g54
sVpublic
p3730
g26
sVoutgoing
p3731
g26
sV5000
p3732
g28
sVranged
p3733
g68
sVoperating
p3734
g34
sVNazarene
p3735
g40
sVchipped
p3736
g54
sVstretching
p3737
g34
sVpublished
p3738
g68
sVspecialize
p3739
g32
sVauthorize
p3740
g32
sVarmed
p3741
g68
sVwiped
p3742
g54
sVtwo
p3743
g28
sVBiblically
p3744
g122
sVone-story
p3745
g26
sVbrisk
p3746
g26
sVAmerican
p3747
g26
sVain't
p3748
g2313
sVvarying
p3749
g34
sVnineteen
p3750
g28
sV260-member
p3751
g26
sVintercepted
p3752
g54
sVremain
p3753
g32
sVpressing
p3754
g34
sVspecialized
p3755
g68
sVpurchases
p3756
g95
sVcompare
p3757
g32
sVapproved
p3758
g54
sVshare
p3759
g36
sVpurchased
p3760
g68
sVsharp
p3761
g26
sVdeplored
p3762
g54
sV!
p3763
g284
sVneeds
p3764
g73
sVneedy
p3765
g26
sVlicked
p3766
g68
sV31730
p3767
g98
sVslackening
p3768
g34
sVblacked
p3769
g68
sVquestioning
p3770
g34
sVcoming
p3771
g34
sVbleak
p3772
g26
sVonto
p3773
g244
sVcrippling
p3774
g34
sVplaying
p3775
g34
sVthat's
p3776
g2826
sVWhat
p3777
g1620
sVrounded
p3778
g54
sVwinged
p3779
g54
sVindustrial
p3780
g26
sVthrough
p3781
g244
sVnoncommissioned
p3782
g26
sVgolfing
p3783
g34
sV5:30
p3784
g28
sV25
p3785
g28
sV26
p3786
g28
sV27
p3787
g28
sVthrilling
p3788
g26
sV21
p3789
g28
sV22
p3790
g28
sV23
p3791
g82
sV28
p3792
g28
sV29
p3793
g28
sVseasonally
p3794
g48
sVlate
p3795
g26
sVhurting
p3796
g34
sVgood
p3797
g26
sVseeking
p3798
g34
sVencouraging
p3799
g26
sVBad
p3800
g70
sVfrigid
p3801
g26
sVformulating
p3802
g34
sVdetach
p3803
g32
sVstepped
p3804
g54
sVeasily
p3805
g48
sVsupersensitive
p3806
g26
sV2d
p3807
g275
sVtoken
p3808
g26
sVmental
p3809
g26
sVhouse
p3810
g36
sVhard
p3811
g26
sV1,512
p3812
g28
sVengaging
p3813
g34
sVconnect
p3814
g32
sVCriminal
p3815
g40
sVE.
p3816
g664
sVex-National
p3817
g40
sVacting
p3818
g34
sVflowed
p3819
g54
sVNorthwestern
p3820
g40
sVenforcing
p3821
g34
sVextraordinary
p3822
g26
sVbacked
p3823
g54
sVbeginning
p3824
g36
sVanti-monopoly
p3825
g26
sVconducted
p3826
g68
sVnetted
p3827
g54
sVwaged
p3828
g68
sVdone
p3829
g68
sVdivorce
p3830
g36
sVsmoother
p3831
g564
sVrevive
p3832
g32
sVleast
p3833
g286
sV182
p3834
g28
sV180
p3835
g28
sVbeardown
p3836
g26
sV189
p3837
g28
sVsmoothed
p3838
g68
sVsizable
p3839
g26
sVfavorable
p3840
g26
sVtomato-red
p3841
g26
sVbelieve
p3842
g32
sV869
p3843
g28
sVgotten
p3844
g68
sVrecording
p3845
g34
sV600-yard
p3846
g26
sVsupposed
p3847
g68
sVtreated
p3848
g68
sVdeclare
p3849
g32
sVleft-handed
p3850
g48
sVaged
p3851
g68
sVAdministrative
p3852
g40
sVbuilt
p3853
g68
sVflared
p3854
g68
sVdancing
p3855
g34
sVMayoral
p3856
g40
sVbuild
p3857
g32
sV10-team
p3858
g26
sVRevolutionary
p3859
g40
sVserene
p3860
g26
sVtook
p3861
g54
sVmost
p3862
g122
sVCommon
p3863
g40
sVsignificant
p3864
g26
sVFresh
p3865
g40
sVextremely
p3866
g48
sVEncouraging
p3867
g34
sVdrifts
p3868
g95
sVmammoth
p3869
g26
sVweigh
p3870
g32
sVwar-ridden
p3871
g26
sVbluntly
p3872
g48
sVparticularly
p3873
g48
sVscattered
p3874
g68
sVunmeritorious
p3875
g26
sVco-operative
p3876
g26
sVcarefully
p3877
g48
sVfine
p3878
g26
sVfind
p3879
g32
sVgiant
p3880
g26
sVdepended
p3881
g54
sVdividing
p3882
g34
sVdistributed
p3883
g68
sV19th
p3884
g58
sVunhappy
p3885
g26
sVfrothier
p3886
g564
sV8
p3887
g28
sVbatted
p3888
g68
sV1311
p3889
g28
sVexpress
p3890
g32
sVresolve
p3891
g32
sVSuddenly
p3892
g48
sVcollapsed
p3893
g54
sVremove
p3894
g32
sV208-pound
p3895
g26
sVcommon
p3896
g26
sVdoubles
p3897
g73
sVtended
p3898
g54
sVindividual
p3899
g26
sVball-hawking
p3900
g26
sVforthcoming
p3901
g26
sVfeared
p3902
g54
sVinternationalist
p3903
g26
sVvisiting
p3904
g34
sVplease
p3905
g32
sVSee
p3906
g32
sVsmallest
p3907
g259
sVeight-year
p3908
g26
sVburned
p3909
g68
sVvindicated
p3910
g351
sVcomplementary
p3911
g26
sVmasterful
p3912
g26
sVdeliberately
p3913
g48
sVquiet-spoken
p3914
g26
sVfull-time
p3915
g26
sVannual
p3916
g26
sVforeign
p3917
g26
sVfocused
p3918
g68
sVYes
p3919
g48
sVYet
p3920
g48
sVhard-to-get
p3921
g26
sVpoint
p3922
g36
sVsimple
p3923
g26
sVsimply
p3924
g48
sVasserted
p3925
g54
sVvolunteered
p3926
g54
sVthroughout
p3927
g244
sVexpensive
p3928
g26
sVraise
p3929
g32
sVcreate
p3930
g32
sVsecret
p3931
g26
sVdropping
p3932
g34
sVmeeting
p3933
g36
sVgay
p3934
g26
sVhonorary
p3935
g26
sVgas
p3936
g36
sV16-year-old
p3937
g26
sVpriced
p3938
g68
sVunderstand
p3939
g32
sV963
p3940
g98
sVsolid
p3941
g26
sVdeferred
p3942
g68
sVeighteenth-
p3943
g58
sVreplaced
p3944
g68
sVcoyly
p3945
g48
sVunearned
p3946
g26
sVdown-to-earth
p3947
g26
sVitself
p3948
g2534
sVengrossed
p3949
g68
sVemphasize
p3950
g32
sVlenient
p3951
g26
sVChristian
p3952
g40
sVnolo
p3953
g109
sVServing
p3954
g34
sVcraven
p3955
g26
sV1964
p3956
g28
sVEconomic
p3957
g40
sVspend
p3958
g32
sVConsidering
p3959
g244
sVuntrammeled
p3960
g26
sV1961
p3961
g28
sVatomic
p3962
g26
sVirritable
p3963
g26
sValternative
p3964
g36
sVletting
p3965
g34
sVpunted
p3966
g54
sVcut
p3967
g68
sVundistinguished
p3968
g26
sVimpoverished
p3969
g26
sVadministrative
p3970
g26
sV1671
p3971
g98
sVDid
p3972
g3338
sVbig
p3973
g26
sVrebound
p3974
g32
sVsaluted
p3975
g68
sVbit
p3976
g36
sVDip
p3977
g32
sVfollows
p3978
g354
sVmiffed
p3979
g68
sVWhatever
p3980
g1620
sVfoolish
p3981
g26
sVoften
p3982
g48
sVabsolutely
p3983
g48
sV10,000,000
p3984
g28
sVgruonded
p3985
g54
sVmagnificent
p3986
g26
sVback
p3987
g48
sVunderdeveloped
p3988
g26
sVofficiated
p3989
g54
sVslow-bouncing
p3990
g26
sVpricing
p3991
g34
sVourselves
p3992
VPRON
p3993
sVpronounced
p3994
g68
sVper
p3995
g244
sVverbally
p3996
g48
sVFifteen
p3997
g28
sVpatient
p3998
g36
sVtaxing
p3999
g34
sVwayward
p4000
g26
sVcontinuing
p4001
g34
sVserved
p4002
g68
sVtripping
p4003
g34
sVShe'll
p4004
g125
sVconciliatory
p4005
g26
sV19-12
p4006
g28
sVPrivately
p4007
g48
sV17-1/2-inch
p4008
g26
sVframed
p4009
g54
sVdownhill
p4010
g26
sVforward
p4011
g48
sV1.58
p4012
g28
sVbored
p4013
g68
sVCome
p4014
g1510
sVhoped
p4015
g68
sVhopes
p4016
g95
sVI'll
p4017
g169
sVSoon
p4018
g48
sVprecipitated
p4019
g68
sVconstant
p4020
g26
sVPerhaps
p4021
g48
sVstripped
p4022
g68
sV22-year-old
p4023
g26
sVsingle
p4024
g26
sVExpresses
p4025
g354
sVdragging
p4026
g34
sVdenying
p4027
g34
sVexcused
p4028
g54
sVintensifying
p4029
g34
sVexcuses
p4030
g95
sVAdvance
p4031
g26
sVlend
p4032
g32
sVprepared
p4033
g54
sVintensified
p4034
g68
sVutterly
p4035
g122
sVbriskly
p4036
g48
sVcooked
p4037
g54
sVAsian
p4038
g40
sVout-of-bounds
p4039
g26
sVAssuming
p4040
g34
sVcontacted
p4041
g68
sVSeeking
p4042
g34
sVliterary
p4043
g26
sVhelps
p4044
g95
sVCrippled
p4045
g24
sVquarterly
p4046
g48
sVfatal
p4047
g26
sVstaffing
p4048
g34
sV11:30
p4049
g28
sVpresently
p4050
g48
sVfurloughed
p4051
g68
sVputting
p4052
g34
sVaccuse
p4053
g32
sVarrange
p4054
g32
sVentire
p4055
g26
sVbusied
p4056
g54
sVslowly-mending
p4057
g26
sVchoppy
p4058
g26
sV12th
p4059
g58
sVLong
p4060
g40
sVlower-priced
p4061
g564
sVgiving
p4062
g34
sVassisted
p4063
g68
sVfat
p4064
g26
sVexercise
p4065
g32
sVexchange
p4066
g36
sV447
p4067
g28
sVjointly
p4068
g48
sVBursts
p4069
g354
sVsink
p4070
g32
sV6934
p4071
g28
sVsing
p4072
g32
sVimplicit
p4073
g26
sV39
p4074
g28
sV38
p4075
g28
sVChinese
p4076
g26
sV33
p4077
g28
sV31
p4078
g28
sV30
p4079
g28
sV37
p4080
g28
sV36
p4081
g28
sV35
p4082
g28
sV34
p4083
g28
sVprincipally
p4084
g48
sVimplement
p4085
g32
sVhonor
p4086
g36
sV130-year
p4087
g26
sVcomposed
p4088
g68
sVnamed
p4089
g68
sVprivate
p4090
g26
sV62-year-old
p4091
g26
sVdecrease
p4092
g32
sVprivately
p4093
g48
sVwon-lost
p4094
g26
sVhammered
p4095
g54
sVthemselves
p4096
g3993
sVharrowing
p4097
g26
sVcollonaded
p4098
g26
sVassailed
p4099
g68
sVtrain
p4100
g36
sVinformally
p4101
g48
sVbilled
p4102
g68
sVtearing
p4103
g34
sVaccount
p4104
g697
sVobvious
p4105
g26
sVpulling
p4106
g34
sVclosing
p4107
g34
sVreserved
p4108
g68
sVe.g.
p4109
g48
sVbleacher-type
p4110
g26
sVoff-beat
p4111
g26
sVeffectively
p4112
g48
sVemploys
p4113
g95
sVvaried
p4114
g68
sVholds
p4115
g95
sVfete
p4116
g32
sVGetting
p4117
g34
sVaft
p4118
g48
sVstock
p4119
g36
sVbothered
p4120
g68
sVambiguous
p4121
g26
sV949
p4122
g28
sV1961-62
p4123
g28
sVlines
p4124
g73
sVchief
p4125
g1305
sVfurnish
p4126
g32
sVever-changing
p4127
g26
sVHooked
p4128
g68
sVwidowed
p4129
g68
sVflattering
p4130
g34
sVagricultural
p4131
g26
sVrevived
p4132
g54
sV300,000
p4133
g28
sVaccredited
p4134
g68
sVwinning
p4135
g34
sVbull-necked
p4136
g26
sVwilling
p4137
g26
sVcriminal
p4138
g26
sVgreater
p4139
g564
sVlater
p4140
g1790
sVspell
p4141
g32
sVStricken
p4142
g24
sV5-game
p4143
g26
sVcutting
p4144
g34
sVstrive
p4145
g32
sVwarned
p4146
g68
sVpreclude
p4147
g32
sVidentified
p4148
g68
sVblazing
p4149
g34
sVgazing
p4150
g34
sVpastel-like
p4151
g26
sVFrom
p4152
g244
sVprogrammed
p4153
g68
sVmost-valuable
p4154
g26
sVdefend
p4155
g32
sVoriental
p4156
g26
sVred
p4157
g26
sVthereupon
p4158
g48
sVapproached
p4159
g54
sVParadoxically
p4160
g48
sVfrank
p4161
g26
sVfourteen
p4162
g28
sVsun-tanned
p4163
g26
sVvehicular
p4164
g26
sVallied
p4165
g68
sVmortal
p4166
g26
sV8-4
p4167
g28
sVretain
p4168
g32
sVretail
p4169
g26
sVfinest
p4170
g259
sVfast-spreading
p4171
g26
sVbraced
p4172
g68
sVreaches
p4173
g95
sVstrategic
p4174
g26
sVOccasionally
p4175
g48
sVreached
p4176
g68
sVancient
p4177
g26
sVpedigreed
p4178
g26
sVvulgar
p4179
g26
sVunspecified
p4180
g26
sVwistfully
p4181
g48
sVcompleted
p4182
g68
sVacquire
p4183
g32
sVtwo-game
p4184
g26
sVthree-front
p4185
g26
sVcompletes
p4186
g95
sVglamorous
p4187
g26
sVLow-flying
p4188
g26
sVloves
p4189
g95
sVvisited
p4190
g54
sV41-8
p4191
g28
sVhalf
p4192
g583
sVcomfortable
p4193
g26
sVunlikely
p4194
g26
sVhave
p4195
VVERB
p4196
sVdisturbing
p4197
g26
sVone-room
p4198
g26
sVforbidden
p4199
g68
sVconcerns
p4200
g95
sV325
p4201
g28
sVprovoked
p4202
g54
sVunless
p4203
g30
sVWithout
p4204
g244
sVeight
p4205
g28
sVpreliminary
p4206
g26
sVRural
p4207
g40
sV53-year-old
p4208
g26
sVheartening
p4209
g26
sVenthusiastic
p4210
g26
sVgather
p4211
g32
sVrequest
p4212
g36
sV1,000
p4213
g28
sVnormally
p4214
g48
sVcontemptuous
p4215
g26
sVsupported
p4216
g68
sVUnconscionable
p4217
g26
sV2-hour-and-27-minute
p4218
g26
sVinspiring
p4219
g34
sVgrabbed
p4220
g54
sVsparks
p4221
g95
sVcontrols
p4222
g95
sVinferior
p4223
g26
sVregularly
p4224
g48
sVpull
p4225
g32
sVbeat
p4226
g54
sVaforementioned
p4227
g26
sVtiming
p4228
g36
sVcalling
p4229
g34
sVincluding
p4230
g244
sVfixed
p4231
g68
sVconstructing
p4232
g34
sVnational
p4233
g26
sV1:48
p4234
g28
sVscholastic
p4235
g26
sVVarious
p4236
g26
sVHurrah
p4237
VPRT
p4238
sVHawaiian
p4239
g26
sVattempting
p4240
g34
sVclearing
p4241
g34
sVpreceeded
p4242
g68
sVroutine
p4243
g36
sVMellow
p4244
g26
sVreproduced
p4245
g68
sVsuperior
p4246
g26
sVStudy
p4247
g1510
sVgrumble
p4248
g32
sVdeliver
p4249
g32
sVjeopardizing
p4250
g34
sVcommenting
p4251
g34
sVtaking
p4252
g34
sVequal
p4253
g26
sVattributed
p4254
g68
sVfulfilled
p4255
g68
sVassure
p4256
g32
sVswim
p4257
g32
sVpassing
p4258
g34
sV6-foot
p4259
g26
sVotherwise
p4260
g48
sVcomment
p4261
g36
sVabortive
p4262
g26
sVSee-through
p4263
g26
sVMusica
p4264
g109
sVbespectacled
p4265
g26
sVearning
p4266
g34
sVCrunch
p4267
g548
sVtremendous
p4268
g26
sVit's
p4269
VPRT
p4270
sVattends
p4271
g95
sVdefine
p4272
g32
sVarises
p4273
g95
sV469
p4274
g28
sVoverwhelmingly
p4275
g48
sVfinished
p4276
g54
sVtense
p4277
g26
sVProfessional
p4278
g40
sV7-9
p4279
g28
sVwelcoming
p4280
g34
sVplain
p4281
g26
sV7-6
p4282
g28
sVGeneral
p4283
g40
sVpending
p4284
g26
sVfrustrating
p4285
g26
sVcarved
p4286
g68
sVchaotic
p4287
g26
sVImperial
p4288
g40
sVhelped
p4289
g68
sVhome-and-home
p4290
g26
sVclaimed
p4291
g54
sVbelatedly
p4292
g48
sVtumbled
p4293
g54
sV2-over-par
p4294
g26
sV)
p4295
g284
sVslammed
p4296
g54
sV3181
p4297
g98
sVtwelfth
p4298
g58
sVHandsome
p4299
g26
sVinjured
p4300
g68
sVtighten
p4301
g32
sVcubic
p4302
g26
sVreporting
p4303
g34
sVdiscredited
p4304
g68
sVunlinked
p4305
g68
sVnumbered
p4306
g54
sVnevertheless
p4307
g48
sVthought
p4308
g54
sVoops
p4309
g548
sVsets
p4310
g354
sVlatest
p4311
g259
sVgas-fired
p4312
g26
sVdomestic
p4313
g26
sVhoped-for
p4314
g26
sV23-year-old
p4315
g26
sVcoasted
p4316
g54
sVunderlying
p4317
g34
sVcardiac
p4318
g26
sVgraduate
p4319
g36
sVLutheran
p4320
g40
sVmathematically
p4321
g48
sVadd
p4322
g32
sV281
p4323
g28
sV280
p4324
g28
sVembossed
p4325
g54
sVmatch
p4326
g32
sVgulped
p4327
g54
sVlike
p4328
g30
sVinviting
p4329
g26
sVnewly-appointed
p4330
g26
sVadmitted
p4331
g54
sVheed
p4332
g32
sVworks
p4333
g73
sVsoft
p4334
g26
sVclassical
p4335
g26
sVWide
p4336
g70
sValive
p4337
g26
sVconvey
p4338
g32
sVproper
p4339
g26
sVhappens
p4340
g95
sVfractured
p4341
g68
sVmasked
p4342
g68
sVbustling
p4343
g34
sVSanitary
p4344
g40
sVAfterward
p4345
g48
sV75-minute
p4346
g26
sVslight
p4347
g26
sVHeating
p4348
g34
sVexpire
p4349
g32
sValthough
p4350
g30
sVhospitable
p4351
g26
sVsnapped
p4352
g54
sVwell-informed
p4353
g26
sVabout
p4354
g244
sVactual
p4355
g26
sVDisplaying
p4356
g34
sVGala
p4357
g40
sVintroduced
p4358
g68
sVrendered
p4359
g54
sVobliterated
p4360
g68
sVfunctional
p4361
g26
sV1986
p4362
g82
sV3211
p4363
g28
sV1981
p4364
g28
sVawarded
p4365
g68
sVbiggest
p4366
g259
sVglib
p4367
g26
sVbuy
p4368
g32
sVchatting
p4369
g34
sV700
p4370
g28
sVbrand
p4371
g122
sVbut
p4372
g1036
sVrepeated
p4373
g68
sVbum
p4374
g32
sVediting
p4375
g34
sVversatile
p4376
g26
sVpartially
p4377
g48
sVCompare
p4378
g32
sVwish
p4379
g32
sVsupreme
p4380
g26
sVour
p4381
g149
sVshooting
p4382
g34
sV48
p4383
g28
sV49
p4384
g28
sV46
p4385
g28
sV47
p4386
g28
sV44
p4387
g28
sVattacked
p4388
g54
sVclaiming
p4389
g34
sVdetail
p4390
g32
sV40
p4391
g28
sV41
p4392
g28
sVhigh-ceilinged
p4393
g26
sVcashed
p4394
g54
sVout
p4395
g1082
sV25-minute
p4396
g26
sVYounger
p4397
VADJ
p4398
sVaffixed
p4399
g68
sVstirred
p4400
g54
sVThus
p4401
g48
sVPrivate
p4402
g26
sVbaked
p4403
g54
sV8th
p4404
g58
sVlimited
p4405
g68
sVcomparatively
p4406
g122
sVContinental
p4407
g40
sV51st
p4408
g58
sVhate
p4409
g32
sVassembled
p4410
g54
sVpoorly
p4411
g122
sVviolate
p4412
g32
sV343
p4413
g28
sVpride
p4414
g36
sVregrets
p4415
g95
sVrisk
p4416
g36
sV7:45
p4417
g28
sVrise
p4418
g36
sVevery
p4419
g127
sVsoftened
p4420
g54
sVreiterating
p4421
g34
sVencounter
p4422
g36
sVcause
p4423
g32
sV21-9
p4424
g28
sVguiding
p4425
g34
sVGo
p4426
g1510
sV21-2
p4427
g28
sVenjoy
p4428
g32
sVpicketed
p4429
g54
sVconstrued
p4430
g54
sVdirect
p4431
g26
sVpersuade
p4432
g32
sVestimated
p4433
g54
sVblue
p4434
g26
sVpro-Western
p4435
g26
sVbeaten
p4436
g68
sVsupplied
p4437
g68
sV2269
p4438
g98
sVendorse
p4439
g32
sVsupplies
p4440
g73
sVseeks
p4441
g95
sVkicked
p4442
g68
sVstared
p4443
g54
sVrepresented
p4444
g54
sV30-30
p4445
g28
sVchanged
p4446
g68
sVEngaging
p4447
g34
sVlaunched
p4448
g54
sVsettled
p4449
g68
sVmidway
p4450
g122
sVGiving
p4451
g34
sVvisibly
p4452
g48
sVerected
p4453
g68
sVvisible
p4454
g26
sVpunching
p4455
g34
sVToying
p4456
g34
sVfire-fighting
p4457
g26
sVHoused
p4458
g68
sVquipping
p4459
g34
sV25th
p4460
g58
sVboomed
p4461
g54
sVexcellent
p4462
g26
sVrobbing
p4463
g34
sVfive-day
p4464
g26
sVmust
p4465
g220
sVme
p4466
g443
sVjoin
p4467
g32
sV9-7
p4468
g28
sV9-6
p4469
g28
sVentertained
p4470
g54
sVmy
p4471
g149
sVdecorative
p4472
g26
sVhigh-sounding
p4473
g26
sVpreserving
p4474
g34
sVattract
p4475
g32
sVoverpowered
p4476
g68
sVend
p4477
g36
sV205-pound
p4478
g26
sVsitting
p4479
g34
sV1-1/2
p4480
g28
sVaching
p4481
g34
sVwidespread
p4482
g26
sVcharging
p4483
g34
sVbadly
p4484
g48
sVdemanding
p4485
g34
sVsplendid
p4486
g26
sVamid
p4487
g244
sVacknowledged
p4488
g68
sVJapanese
p4489
g26
sVultimate
p4490
g26
sVenter
p4491
g32
sValoud
p4492
g48
sVBeyond
p4493
g244
sVexecuted
p4494
g68
sVuntold
p4495
g26
sVover
p4496
g244
sVexpects
p4497
g95
sVHere
p4498
g2243
sVwriting
p4499
g34
sVtilts
p4500
g95
sVArmenian
p4501
g26
sV400
p4502
g28
sVrental
p4503
g26
sVLiberal
p4504
g40
sVshadowy
p4505
g26
sVFour
p4506
g28
sV72-hole
p4507
g26
sVfilling
p4508
g36
sVeach
p4509
g140
sVlasting
p4510
g34
sVsigning
p4511
g34
sVcelebrating
p4512
g34
sVcombining
p4513
g34
sVovercame
p4514
g54
sVHoly
p4515
g40
sV11-month-old
p4516
g26
sVwashed
p4517
g68
sVtwo-hour
p4518
g26
sVHurt
p4519
g68
sVcollaborated
p4520
g54
sVlaid
p4521
g68
sVgot
p4522
g54
sVnewly
p4523
g48
sVhaggling
p4524
g34
sVJunior
p4525
g40
sVcalmest
p4526
g259
sVunderwrite
p4527
g32
sVmerchandising
p4528
g34
sVassociate
p4529
g26
sVambled
p4530
g54
sVfree
p4531
g26
sVboosting
p4532
g34
sVwanted
p4533
g54
sValarmingly
p4534
g48
sVjangling
p4535
g34
sVP.M.
p4536
g48
sVcity-wide
p4537
g26
sVcooperating
p4538
g34
sValready
p4539
g48
sVofficious
p4540
g26
sVprimary
p4541
g36
sVhearing
p4542
g36
sVrestrict
p4543
g32
sVblunts
p4544
g95
sVtop
p4545
g1305
sVconfirming
p4546
g34
sVtoo
p4547
g48
sVurban
p4548
g26
sVFur
p4549
g244
sVserve
p4550
g32
sVconspicuously
p4551
g48
sVnegotiating
p4552
g34
sVwestern
p4553
g26
sV64-cent
p4554
g26
sVhealed
p4555
g54
sVbrushed
p4556
g54
sVclassed
p4557
g68
sVbulletins
p4558
g95
sV1976
p4559
g28
sV10th
p4560
g58
sVoath-taking
p4561
g26
sVbridge
p4562
g32
sVran
p4563
g54
sV150,000,000
p4564
g28
sVtalking
p4565
g34
sVregulate
p4566
g32
sVrelatively
p4567
g122
sVtraditionally
p4568
g48
sV4,500
p4569
g28
sVthoroughly
p4570
g48
sV1966
p4571
g28
sV1960
p4572
g28
sVisolated
p4573
g68
sV1962
p4574
g28
sV1963
p4575
g28
sVrides
p4576
g95
sVglimpsed
p4577
g68
sVthough
p4578
g30
sVcourt-appointed
p4579
g26
sVplenty
p4580
g36
sVglow
p4581
g218
sVflow
p4582
g36
sVorderly
p4583
g26
sV520-acre
p4584
g26
sVentertaining
p4585
g34
sVIts
p4586
g149
sVpardoned
p4587
g68
sVmarveled
p4588
g68
sVpops
p4589
g95
sVtwo-season
p4590
g26
sVSimultaneously
p4591
g48
sVFifty-three
p4592
g28
sVBig
p4593
g40
sV543
p4594
g98
sV540
p4595
g28
sVannounce
p4596
g32
sVborrowed
p4597
g54
sVwatch
p4598
g32
sVcriticized
p4599
g54
sVdespite
p4600
g244
sVreport
p4601
g36
sVNobody's
p4602
VPRT
p4603
sVtwice
p4604
g48
sVautomatic
p4605
g26
sVswept
p4606
g68
sVtwo-family
p4607
g26
sVinapt
p4608
g26
sVresist
p4609
g32
sVcorrupt
p4610
g26
sVsporadic
p4611
g26
sVrain-slick
p4612
g26
sVapproach
p4613
g36
sV361
p4614
g28
sVreiterate
p4615
g32
sV185,000
p4616
g28
sVhowever
p4617
g488
sVwear
p4618
g32
sVconsists
p4619
g95
sVblasted
p4620
g54
sVimprove
p4621
g32
sVfaced
p4622
g68
sVAmong
p4623
g244
sVprotect
p4624
g32
sVparticipating
p4625
g34
sVWe'd
p4626
g169
sVfaces
p4627
g73
sVbetting
p4628
g34
sVmajestic
p4629
g26
sVincomparable
p4630
g26
sVSouthern
p4631
g40
sV85-student
p4632
g26
sVbeen
p4633
VVERB
p4634
sVquickly
p4635
g48
sVconfident
p4636
g26
sVbelongs
p4637
g95
sVexpected
p4638
g68
sVincomparably
p4639
g48
sVrefuted
p4640
g351
sV900
p4641
g28
sVuncommon
p4642
g26
sVtransatlantic
p4643
g26
sVDeputy
p4644
g40
sVstopping
p4645
g34
sVcracked
p4646
g54
sVprecede
p4647
g32
sVWrite
p4648
g32
sVTell
p4649
g32
sVcontaining
p4650
g34
sVsuggest
p4651
g32
sVwound
p4652
g54
sVbeside
p4653
g244
sVutilitarian
p4654
g26
sVcomplex
p4655
g26
sVseveral
p4656
g286
sVpick
p4657
g32
sVgreeted
p4658
g68
sVinsisted
p4659
g54
sVnarrow
p4660
g26
sVshortly
p4661
g48
sVhearty
p4662
g26
sVgreatest
p4663
g259
sVmother
p4664
g36
sVseasonal
p4665
g26
sVproposed
p4666
g351
sVproposes
p4667
g95
sVbreaching
p4668
g34
sVgave
p4669
g54
sVbreaks
p4670
g95
sVcultural
p4671
g26
sVjudge
p4672
g36
sV59
p4673
g28
sVadvanced
p4674
g68
sVapart
p4675
g48
sVappearing
p4676
g34
sV58
p4677
g28
sV55
p4678
g28
sV54
p4679
g28
sV56
p4680
g28
sV51
p4681
g28
sV50
p4682
g28
sV52
p4683
g28
sVspecific
p4684
g26
sVremanding
p4685
g34
sVhung
p4686
g54
sVAgain
p4687
g48
sVgifted
p4688
g26
sVenvision
p4689
g32
sVsuccessfully
p4690
g48
sVspongy
p4691
g26
sVMuch
p4692
g286
sVescape
p4693
g32
sVindirect
p4694
g26
sVestablish
p4695
g32
sVtotals
p4696
g95
sVprejudicial
p4697
g70
sVicy
p4698
g26
sVallocate
p4699
g32
sV420
p4700
g28
sV3:30
p4701
g28
sVAccepted
p4702
g24
sVHe
p4703
g2780
sVexpires
p4704
g95
sVenunciate
p4705
g32
sVpermitted
p4706
g68
sVFair
p4707
g1444
sVblabbed
p4708
g54
sVchoke
p4709
g32
sVplus
p4710
g1036
sVlogistical
p4711
g26
sVStill
p4712
g48
sVBest
p4713
g1041
sVdischarging
p4714
g34
sVcivil
p4715
g26
sVlavishly
p4716
g122
sVobtaining
p4717
g34
sVnaturalized
p4718
g68
sVuncontrolled
p4719
g26
sVbats
p4720
g73
sVexisted
p4721
g54
sVrely
p4722
g32
sVindispensable
p4723
g26
sVstuck
p4724
g54
sVfought
p4725
g68
sVpurposely
p4726
g48
sVquestionable
p4727
g26
sVhead
p4728
g36
sVamateur
p4729
g36
sVattempted
p4730
g54
sVdeny
p4731
g32
sVhear
p4732
g32
sVsatisfactorily
p4733
g48
sVremoved
p4734
g68
sVmuster
p4735
g32
sVdecorate
p4736
g32
sVtrim
p4737
g32
sV2433
p4738
g28
sVrumored
p4739
g68
sVsometime
p4740
g48
sVacclaimed
p4741
g54
sVcheck
p4742
g36
sVHigh
p4743
g40
sVboobify
p4744
g32
sVno
p4745
g127
sVwhen
p4746
g488
sVsetting
p4747
g36
sVpermitting
p4748
g34
sVreconsider
p4749
g32
sVbulletin'd
p4750
g54
sVDouble
p4751
g70
sVmiscellaneous
p4752
g26
sVpropelling
p4753
g34
sVdullest
p4754
g259
sVyounger
p4755
g564
sVfaster
p4756
g1790
sVUniversal-International
p4757
g40
sVlanded
p4758
g54
sVremarked
p4759
g54
sVcontrolling
p4760
g34
sVhitless
p4761
g26
sVremarkable
p4762
g26
sVparticular
p4763
g26
sVleads
p4764
g95
sVtripartite
p4765
g26
sVremarkably
p4766
g122
sVGets
p4767
g354
sVdisplaying
p4768
g34
sV1948
p4769
g28
sV1949
p4770
g28
sV1942
p4771
g28
sV1943
p4772
g28
sV1940
p4773
g28
sV1946
p4774
g28
sV1947
p4775
g28
sV1944
p4776
g28
sV1945
p4777
g28
sVcharge
p4778
g36
sVoutmoded
p4779
g26
sVdecreeing
p4780
g34
sVunfamiliar
p4781
g26
sVcook
p4782
g32
sVemphasized
p4783
g54
sVcool
p4784
g26
sVdenounced
p4785
g68
sVslow-baked
p4786
g26
sVsighed
p4787
g54
sVimpressive
p4788
g26
sVyear-to-year
p4789
g26
sVthree-inning
p4790
g26
sVculminating
p4791
g34
sVquick
p4792
g26
sVsays
p4793
g95
sVtougher
p4794
g1790
sVslowed
p4795
g68
sVfeted
p4796
g68
sVNorthwest
p4797
g40
sVcomforting
p4798
g34
sVSeeks
p4799
g354
sVendangering
p4800
g34
sVstands
p4801
g95
sVTheatre
p4802
g109
sVcontracted
p4803
g54
sVgoes
p4804
g95
sVCaucusing
p4805
g34
sVreply
p4806
g36
sVninety-nine
p4807
g28
sV4:05
p4808
g28
sVentertain
p4809
g32
sVthree-round
p4810
g26
sVcrippled
p4811
g68
sV6-6
p4812
g28
sV6-7
p4813
g28
sVgraduates
p4814
g95
sV6-3
p4815
g28
sVsupplying
p4816
g34
sVSees
p4817
g354
sVboast
p4818
g32
sV25-foot
p4819
g26
sVsnubbed
p4820
g68
sVguilty
p4821
g26
sVemerge
p4822
g32
sVSaid
p4823
g54
sVIt's
p4824
g991
sVTherefore
p4825
g48
sVyourself
p4826
g2534
sVhandled
p4827
g68
sVhandles
p4828
g95
sVupheld
p4829
g68
sVfourteen-nation
p4830
g26
sVThese
p4831
g466
sVinherited
p4832
g54
sVVivacious
p4833
g26
sVCalling
p4834
g34
sVdismal
p4835
g26
sVco-educational
p4836
g26
sVGerman
p4837
g26
sVmodified
p4838
g351
sVpredominating
p4839
g34
sVworthiest
p4840
g259
sVnursing
p4841
g34
sVfigure
p4842
g36
sVEighteenth
p4843
g275
sVstroke
p4844
g36
sVslugging
p4845
g34
sVperformed
p4846
g54
sVcounting
p4847
g34
sVMarketing
p4848
g737
sVmeager
p4849
g26
sV1
p4850
g28
sVvital
p4851
g26
sVfourth
p4852
g58
sVflavored
p4853
g68
sVnarrowly
p4854
g48
sVparamount
p4855
g1305
sVirrational
p4856
g26
sVcrashed
p4857
g68
sVheartbreaking
p4858
g26
sV4th
p4859
g58
sVtipped
p4860
g54
sVcountin'
p4861
g34
sVeighth
p4862
g58
sVdisheartening
p4863
g34
sVsucceeded
p4864
g68
sVinform
p4865
g32
sVinvests
p4866
g95
sVexclusive
p4867
g26
sVfurnished
p4868
g68
sVSixty-seven
p4869
g28
sVmainly
p4870
g48
sVenlarge
p4871
g32
sVWhite
p4872
g40
sVblocked
p4873
g68
sVhe's
p4874
g4270
sVoffers
p4875
g95
sVMoving
p4876
g34
sVUsing
p4877
g34
sVhappened
p4878
g54
sVCable
p4879
g32
sVdelighted
p4880
g68
sVqualified
p4881
g68
sVconquer
p4882
g32
sVrescind
p4883
g32
sVexecute
p4884
g32
sVname
p4885
g36
sVrealistic
p4886
g26
sVdonated
p4887
g54
sVExploratory
p4888
g70
sVsprinkle
p4889
g32
sVcatching
p4890
g34
sV7034
p4891
g28
sVbegun
p4892
g68
sVadequately
p4893
g48
sVintended
p4894
g68
sVultimately
p4895
g48
sVprofit
p4896
g36
sVattracted
p4897
g68
sV12-year-old
p4898
g26
sVshouldn't
p4899
g647
sVmaneuver
p4900
g32
sVattended
p4901
g54
sVdispatched
p4902
g68
sV3-year-old
p4903
g26
sVRuling
p4904
g1356
sVturn
p4905
g32
sVplace
p4906
g36
sVswing
p4907
g32
sV1000
p4908
g28
sVsuspend
p4909
g32
sVsurviving
p4910
g34
sVsoaring
p4911
g34
sVappealed
p4912
g54
sVdisinterested
p4913
g26
sVgiven
p4914
g68
sVEspagnol
p4915
g109
sVSuch
p4916
g26
sVwhite
p4917
g26
sVgives
p4918
g95
sVexploring
p4919
g34
sVcope
p4920
g32
sVreleased
p4921
g68
sVoperates
p4922
g95
sVwide
p4923
g26
sVrequire
p4924
g32
sVdiplomatic
p4925
g26
sVgeometrically
p4926
g48
sVYankee
p4927
g664
sVand
p4928
g1036
sVpro
p4929
g36
sVconfessed
p4930
g54
sVnominating
p4931
g34
sVsells
p4932
g95
sVany
p4933
g1776
sVbatting
p4934
g34
sVexploratory
p4935
g26
sVdining
p4936
g34
sVideal
p4937
g26
sVOperating
p4938
g34
sVblunt
p4939
g26
sVsure
p4940
g26
sVmultiple
p4941
g26
sVboiling
p4942
g34
sVmultiply
p4943
g218
sVcleared
p4944
g351
sVconsidered
p4945
g54
sVadopt
p4946
g32
sVreadjust
p4947
g32
sVsenior
p4948
g26
sVPrincipal
p4949
g1305
sVwritten
p4950
g68
sVbelieving
p4951
g34
sVcautioned
p4952
g54
sVpray
p4953
g32
sVbegging
p4954
g34
sVsubstitutionary
p4955
g26
sVlighter
p4956
g4398
sVtrade
p4957
g36
sVSimilar
p4958
g26
sVreveal
p4959
g32
sV1825
p4960
g28
sVpredicted
p4961
g54
sVbought
p4962
g68
sVdiscussing
p4963
g34
sVignored
p4964
g68
sVimposing
p4965
g34
sVviolated
p4966
g68
sV1920
p4967
g28
sV1921
p4968
g28
sV1922
p4969
g28
sV1923
p4970
g28
sV1924
p4971
g28
sV1925
p4972
g28
sV1926
p4973
g98
sVparking
p4974
g34
sV1928
p4975
g28
sVcollects
p4976
g95
sVencouraged
p4977
g68
sVfails
p4978
g95
sVinvoked
p4979
g68
sVvoluntary
p4980
g26
sVmanaging
p4981
g34
sVsubsequent
p4982
g26
sVreview
p4983
g36
sVDallas-headquartered
p4984
g26
sVcirculating
p4985
g34
sVoutside
p4986
g244
sV24
p4987
g28
sVNatural
p4988
g26
sVoriginated
p4989
g54
sV20
p4990
g28
sVcome
p4991
g32
sV390-foot
p4992
g26
sVcontract
p4993
g36
sVIndividual
p4994
g70
sVWe've
p4995
g1130
sVpop
p4996
g32
sV60
p4997
g28
sV61
p4998
g28
sV63
p4999
g28
sVswum
p5000
g68
sV65
p5001
g28
sV67
p5002
g28
sV68
p5003
g28
sV69
p5004
g28
sVtwo-year
p5005
g26
sVtwo-story
p5006
g26
sVspotlights
p5007
g95
sVBut
p5008
g1036
sVdeposited
p5009
g68
sVfeaturing
p5010
g34
sVhardly
p5011
g48
sV500
p5012
g28
sV1213
p5013
g28
sV1215
p5014
g98
sVrobbed
p5015
g68
sVdiamond-studded
p5016
g26
sVcareful
p5017
g26
sVpaying
p5018
g34
sVmyself
p5019
g2534
sVamend
p5020
g32
sV6-foot-3-inch
p5021
g26
sVcash
p5022
g36
sVirrespective
p5023
g26
sVunsatisfactory
p5024
g26
sVoks
p5025
g354
sVerroneously
p5026
g48
sVgranted
p5027
g68
sV10:30
p5028
g28
sVbows
p5029
g95
sVpropose
p5030
g32
sVapplaud
p5031
g32
sVSustaining
p5032
g34
sVdrives
p5033
g95
sVdriven
p5034
g68
sVstatutory
p5035
g26
sVdelicate
p5036
g26
sVchanging
p5037
g34
sVMuncipal
p5038
g40
sVvowed
p5039
g54
sVperennial
p5040
g26
sVIs
p5041
g3198
sVIt
p5042
g2780
sV46th
p5043
g58
sVwithout
p5044
g244
sVIn
p5045
g244
sVmodel
p5046
g36
sVreward
p5047
g32
sVjustify
p5048
g32
sVburglarproof
p5049
g26
sVguided
p5050
g54
sVunconstitutional
p5051
g26
sVninth
p5052
g58
sVlavish
p5053
g26
sVviolent
p5054
g26
sVcease
p5055
g32
sVcaptured
p5056
g68
sVhalfway
p5057
g122
sVsampled
p5058
g68
sVBroadly
p5059
g48
sVwe've
p5060
g1130
sVseems
p5061
g95
sVexcept
p5062
g244
sVpoised
p5063
g68
sVscheduled
p5064
g54
sV32,000
p5065
g28
sVtest
p5066
g36
sVaccepted
p5067
g68
sVbonding
p5068
g34
sVacute
p5069
g26
sVwrongful
p5070
g26
sVwholly-owned
p5071
g26
sVrecalls
p5072
g95
sVreduced
p5073
g68
sV3-inch
p5074
g26
sVWest
p5075
g40
sVSince
p5076
g30
sVJolly
p5077
g40
sVListed
p5078
g68
sVInternational
p5079
g40
sVintact
p5080
g26
sVprovided
p5081
g68
sVslice
p5082
g36
sVtasteful
p5083
g26
sVfreer
p5084
g564
sVlegal
p5085
g26
sVwithdrawn
p5086
g68
sVrooming
p5087
g34
sVprovides
p5088
g95
sVfreed
p5089
g68
sVwelcome
p5090
g32
sVfabled
p5091
g26
sVon
p5092
g244
sVsubdued
p5093
g68
sVof
p5094
g244
sVdiscussed
p5095
g68
sVstand
p5096
g36
sVor
p5097
g1036
sVwarbling
p5098
g34
sVrising
p5099
g34
sVdetermine
p5100
g32
sVspeculated
p5101
g54
sVstrictly
p5102
g48
sVthere
p5103
g1978
sVdisposed
p5104
g68
sVdeteriorating
p5105
g34
sV750
p5106
g28
sVregard
p5107
g36
sVstaunchest
p5108
g259
sVpromote
p5109
g32
sVlonger
p5110
g1790
sVHeavy
p5111
g70
sVapplying
p5112
g34
sV1020
p5113
g98
sVwholesale
p5114
g26
sV2,418
p5115
g28
sVtotaling
p5116
g34
sVcorresponding
p5117
g26
sVspends
p5118
g95
sV4.4
p5119
g28
sVcompel
p5120
g32
sVHelping
p5121
g34
sVpainted
p5122
g68
sV5
p5123
g28
sVseven-stories
p5124
g26
sVbriefly
p5125
g48
sVseparate
p5126
g26
sVuncorked
p5127
g54
sVtax-aided
p5128
g26
sVsubbing
p5129
g34
sVcourtly
p5130
g26
sVbounded
p5131
g68
sVtwenty-first
p5132
g58
sVserious
p5133
g26
sVincluded
p5134
g68
sV5-day
p5135
g26
sVunresponsive
p5136
g26
sVbooked
p5137
g68
sVcalls
p5138
g73
sVunscathed
p5139
g26
sVRepublican-controlled
p5140
g26
sVall
p5141
g583
sVlack
p5142
g36
sVPharmical
p5143
g40
sVfollow
p5144
g32
sVlining
p5145
g34
sVsubjected
p5146
g68
sVprogram
p5147
g36
sVbelonging
p5148
g34
sVworse
p5149
g564
sVfar
p5150
g48
sVinduce
p5151
g32
sVworst
p5152
g259
sV22-acre
p5153
g26
sVvacationing
p5154
g34
sVtreating
p5155
g34
sVNursing
p5156
g1356
sVMomentarily
p5157
g48
sVAiding
p5158
g737
sVten
p5159
g28
sVrate
p5160
g36
sVgranular-type
p5161
g26
sVEast
p5162
g40
sVaptly
p5163
g48
sVsue
p5164
g32
sVdeeply
p5165
g122
sVeminent
p5166
g26
sVso-far
p5167
g48
sVracing
p5168
g34
sVsupposedly
p5169
g48
sVcombating
p5170
g34
sVskidded
p5171
g54
sVobserving
p5172
g34
sVnaval
p5173
g26
sVallows
p5174
g95
sVminiature
p5175
g26
sVsuddenly
p5176
g48
sVoutplayed
p5177
g54
sVimpolitic
p5178
g26
sVThey'll
p5179
g169
sVStandard
p5180
g40
sV1900
p5181
g28
sVproceed
p5182
g32
sVfaint
p5183
g26
sVSiciliana
p5184
g109
sVLives
p5185
g354
sVminor
p5186
g26
sVunhappiest
p5187
g259
sVflat
p5188
g36
sVunderprivileged
p5189
g26
sVknows
p5190
g95
sVre-elected
p5191
g68
sVunworkable
p5192
g26
sVstick
p5193
g32
sVRelatively
p5194
g48
sVknown
p5195
g68
sVglad
p5196
g26
sVpresumed
p5197
g68
sVineffectual
p5198
g26
sVembarrassing
p5199
g34
sVchallenging
p5200
g26
sVarise
p5201
g32
sVswung
p5202
g68
sV5.1
p5203
g28
sVrather
p5204
g244
sVbreaking
p5205
g34
sV58th
p5206
g58
sVoccasionally
p5207
g48
sVspeeding
p5208
g34
sVexplains
p5209
g354
sVguttural
p5210
g26
sVpertained
p5211
g54
sVForeign
p5212
g40
sVdisable
p5213
g32
sVshort
p5214
g26
sVchiefly
p5215
g48
sVprefers
p5216
g95
sVclimaxed
p5217
g68
sVArmed
p5218
g68
sVdon't
p5219
g3717
sVdeveloped
p5220
g68
sVSame
p5221
g286
sV10:50
p5222
g28
sVeluded
p5223
g54
sVprecautionary
p5224
g26
sVdisagreed
p5225
g54
sVFull
p5226
g26
sV7599
p5227
g28
sVsusceptible
p5228
g26
sVassaulting
p5229
g34
sVharmless
p5230
g26
sVmight
p5231
g220
sValter
p5232
g32
sVreturn
p5233
g36
sVgenerously
p5234
g48
sVopposes
p5235
g95
sVbigger
p5236
g564
sVginning
p5237
g34
sVScottish
p5238
g40
sVinherent
p5239
g26
sVresiding
p5240
g34
sVcharacterized
p5241
g68
sVweighs
p5242
g95
sVmodernized
p5243
g54
sVper-game
p5244
g26
sVexpect
p5245
g32
sVundertake
p5246
g32
sVscratching
p5247
g34
sVMore
p5248
VADJ
p5249
sVEight
p5250
g98
sV1-0
p5251
g28
sVcongenial
p5252
g26
sVbase-stealing
p5253
g26
sVremodeling
p5254
g34
sVersatz
p5255
g109
sVPerennian
p5256
g26
sVforgive
p5257
g32
sVteach
p5258
g32
sVlag
p5259
g32
sVExpect
p5260
g32
sVtwenty
p5261
g28
sVfallen
p5262
g68
sVthrows
p5263
g354
sVfeed
p5264
g32
sV3-month
p5265
g26
sVfeel
p5266
g32
sVtraveled
p5267
g68
sVenlarged
p5268
g54
sVIndian
p5269
g40
sVslower
p5270
g564
sVDenver-area
p5271
g26
sVpasses
p5272
g73
sVleading
p5273
g34
sVfinanced
p5274
g68
sVCavaliere
p5275
g109
sVpassed
p5276
g54
sVphotographing
p5277
g34
sVthree-story
p5278
g26
sVerupted
p5279
g54
sVrelieved
p5280
g54
sVconvinced
p5281
g68
sVofficiate
p5282
g32
sVrelieves
p5283
g95
sVkind
p5284
g36
sVsinless
p5285
g26
sVdouble
p5286
g36
sVinvaded
p5287
g68
sVskylarking
p5288
g34
sVdoubly
p5289
g122
sVcontendere
p5290
g109
sVElementary
p5291
g40
sVgangling
p5292
g26
sV8:30
p5293
g28
sV400,000,000
p5294
g28
sVcleaner
p5295
g564
sVBallet
p5296
g1444
sVoutstanding
p5297
g26
sVstrengthen
p5298
g32
sVsuspicious
p5299
g26
sVshrewd
p5300
g26
sVgala
p5301
g36
sV7A
p5302
g98
sVmoist
p5303
g26
sVViewing
p5304
g34
sVRed
p5305
g40
sVfinding
p5306
g34
sVpopulous
p5307
g26
sVcontractual
p5308
g26
sVinterfered
p5309
g54
sVseedless
p5310
g26
sVadded
p5311
g54
sVelectric
p5312
g26
sVintervened
p5313
g54
sVreach
p5314
g32
sVEqual
p5315
g70
sV77
p5316
g28
sV76
p5317
g28
sV75
p5318
g28
sV74
p5319
g28
sV73
p5320
g28
sV72
p5321
g28
sV71
p5322
g28
sV70
p5323
g28
sVmeasured
p5324
g68
sVpatterned
p5325
g68
sV1044
p5326
g98
sVtraditional
p5327
g26
sVlying
p5328
g34
sVCerebral
p5329
g40
sVinflexible
p5330
g26
sV187.5
p5331
g28
sVdeserts
p5332
g95
sVLacking
p5333
g34
sVdiscuss
p5334
g32
sVhip
p5335
g26
sVhis
p5336
g149
sVhit
p5337
g68
sVcompiled
p5338
g54
sV11-5
p5339
g28
sV11-7
p5340
g28
sV5,000
p5341
g28
sVfastest
p5342
g259
sV11-3
p5343
g28
sVshared
p5344
g54
sVhim
p5345
g443
sVOlympic
p5346
g40
sVtimeless
p5347
g26
sV1910-14
p5348
g28
sVinvestigate
p5349
g32
sVwrote
p5350
g54
sVbars
p5351
g95
sVachieved
p5352
g54
sVdeclines
p5353
g95
sVachieves
p5354
g95
sVbare
p5355
g26
sVare
p5356
VVERB
p5357
sVdeclined
p5358
g54
sVmechanically
p5359
g48
sVnailed
p5360
g54
sVvarious
p5361
g26
sVconsecutive
p5362
g26
sVother's
p5363
VPRT
p5364
sVnumerous
p5365
g26
sVrecently
p5366
g48
sVcreating
p5367
g34
sVinitially
p5368
g48
sVsold
p5369
g68
sVsucceed
p5370
g32
sVlicense
p5371
g36
sVbecame
p5372
g54
sVfinds
p5373
g95
sVreside
p5374
g32
sVflies
p5375
g354
sVimproper
p5376
g26
sV4-under-par
p5377
g26
sVregulated
p5378
g68
sVdecline
p5379
g36
sVPlay
p5380
g32
sV6-5
p5381
g28
sVpolitical
p5382
g26
sVdue
p5383
g70
sVdug
p5384
g68
sVwhom
p5385
VPRON
p5386
sVsuper-secret
p5387
g26
sVvaguely
p5388
g48
sVten-hour
p5389
g26
sVdemand
p5390
g697
sVstolen
p5391
g68
sVadvocating
p5392
g34
sVnoticeable
p5393
g26
sV2100
p5394
g28
sV2-score-year
p5395
g26
sVcanvassed
p5396
g68
sVenriching
p5397
g34
sVdisappointing
p5398
g26
sVawakening
p5399
g34
sVfrantic
p5400
g26
sVlodged
p5401
g54
sVrig
p5402
g32
sVrid
p5403
g26
sVlengthy
p5404
g26
sVparading
p5405
g34
sVwidely
p5406
g48
sV9
p5407
g82
sVhigher
p5408
g564
sVAbout
p5409
g48
sVnegotiate
p5410
g32
sVflows
p5411
g95
sVbrooding
p5412
g34
sVarrived
p5413
g54
sVbronzy-green-gold
p5414
g26
sVlower
p5415
g564
sVAlmost
p5416
g48
sVdepending
p5417
g244
sVdares
p5418
g95
sVbounced
p5419
g54
sVstating
p5420
g34
sVpolled
p5421
g68
sVcompetitive
p5422
g26
sVWe're
p5423
g753
sV87-31
p5424
g28
sVloading
p5425
g34
sVretaliating
p5426
g34
sVunder-developed
p5427
g26
sVDiversified
p5428
g24
sVexclusively
p5429
g48
sVgovernmental
p5430
g26
sVLast
p5431
g286
sVamended
p5432
g54
sV675
p5433
g28
sV676
p5434
g98
sVdiscriminatory
p5435
g26
sVDefends
p5436
g354
sVshaped
p5437
g68
sVconfront
p5438
g32
sVseparately
p5439
g48
sVHiring
p5440
g34
sVessential
p5441
g26
sVparalyzed
p5442
g68
sVhinted
p5443
g68
sVBacks
p5444
g354
sVunderstood
p5445
g68
sV3.1
p5446
g28
sVFirm
p5447
g26
sVgradually
p5448
g48
sVprop
p5449
g32
sV'52
p5450
g28
sV'51
p5451
g28
sV'55
p5452
g28
sVprod
p5453
g32
sVjumpy
p5454
g26
sVcontrasting
p5455
g34
sVrefused
p5456
g68
sVintense
p5457
g26
sVvivid
p5458
g26
sVcautious
p5459
g26
sVDecries
p5460
g354
sVcompleting
p5461
g34
sVfiring
p5462
g34
sVrangy
p5463
g26
sVyouthful
p5464
g26
sVunnoticed
p5465
g70
sVimpressed
p5466
g54
sVquestion
p5467
g36
sVlong
p5468
g26
sVEvery
p5469
g127
sVwe're
p5470
g753
sVaudio-visual
p5471
g26
sVrepeatedly
p5472
g48
sVLtd.
p5473
g24
sVfiled
p5474
g54
sVjunior
p5475
g26
sVraising
p5476
g34
sVlandscaped
p5477
g68
sVhasn't
p5478
VVERB
p5479
sVexport
p5480
g32
sVetc.
p5481
g48
sVcalled
p5482
g68
sVassociated
p5483
g68
sVwarning
p5484
g36
sVIndicating
p5485
g34
sVrainy
p5486
g26
sVtentative
p5487
g26
sV3.25
p5488
g28
sV3.28
p5489
g28
sVnice
p5490
g26
sVhelping
p5491
g34
sVgenerated
p5492
g68
sVanti-trust
p5493
g26
sVallowing
p5494
g34
sVanti-submarine
p5495
g26
sVhappier
p5496
g564
sVdragged
p5497
g68
sVsteaming
p5498
g34
sVsix-point
p5499
g26
sVonce
p5500
g48
sVissued
p5501
g68
sVZoning
p5502
g737
sVHitting
p5503
g34
sVwindy
p5504
g26
sVwinds
p5505
g95
sVacclimatized
p5506
g68
sVlong-bodied
p5507
g26
sVuphold
p5508
g32
sVblended
p5509
g68
sVinclude
p5510
g32
sVseized
p5511
g68
sVnotes
p5512
g95
sVdemonstrated
p5513
g68
sVdealt
p5514
g54
sVparochial
p5515
g26
sVnoted
p5516
g54
sVconcluded
p5517
g68
sVsmaller
p5518
g564
sVyou'd
p5519
g169
sVperched
p5520
g68
sVtraveling
p5521
g34
sVplead
p5522
g32
sVreaching
p5523
g34
sVwaiting
p5524
g34
sVgubernatorial
p5525
g26
sVtwice-a-year
p5526
g26
sVFormer
p5527
g286
sVchose
p5528
g54
sVLight
p5529
g70
sVpushing
p5530
g34
sVslated
p5531
g68
sVyoungest
p5532
g259
sVdesired
p5533
g68
sV5777
p5534
g28
sVsettling
p5535
g34
sVlarger
p5536
g564
sVmurdered
p5537
g68
sVleaving
p5538
g34
sVpre-academic
p5539
g26
sVdeputy
p5540
g26
sVforbid
p5541
g32
sVapt
p5542
g26
sVapply
p5543
g32
sVuse
p5544
g32
sVfrom
p5545
g244
sV&
p5546
g1036
sVfew
p5547
g286
sVArranging
p5548
g34
sVIntervenes
p5549
g354
sVinclined
p5550
g68
sVcooperate
p5551
g32
sVsore
p5552
g26
sVExclaimed
p5553
g54
sVaugment
p5554
g32
sVanywhere
p5555
g48
sVdropped
p5556
g54
sVNorthern
p5557
g40
sVre-set
p5558
g32
sVtax
p5559
g36
sVrapt
p5560
g26
sVshipping
p5561
g34
sVsit
p5562
g32
sVsix
p5563
g28
sVoutclass
p5564
g32
sVunquestionably
p5565
g48
sVinstead
p5566
g48
sVsecular
p5567
g26
sVattend
p5568
g32
sV1886
p5569
g28
sVbankrupt
p5570
g70
sVlight
p5571
g36
sV4911
p5572
g28
sVsculptured
p5573
g68
sVhonestly
p5574
g48
sVaimed
p5575
g68
sV133
p5576
g28
sV130
p5577
g28
sVOriental
p5578
g40
sVlooks
p5579
g95
sV135
p5580
g28
sVunchecked
p5581
g26
sVraw
p5582
g26
sVunderwater
p5583
g26
sVremembered
p5584
g68
sVnostalgic
p5585
g26
sVpermanent
p5586
g26
sVrestrain
p5587
g32
sVchoose
p5588
g32
sVorange
p5589
g26
sVcovered
p5590
g68
sVTestifies
p5591
g354
sVedging
p5592
g34
sVbelted
p5593
g54
sVflex
p5594
g32
sVviolating
p5595
g34
sVcampaigned
p5596
g54
sVWouldn't
p5597
VVERB
p5598
sVcommended
p5599
g68
sVflew
p5600
g54
sVCan
p5601
g220
sVfled
p5602
g54
sVprofound
p5603
g26
sVgrisly
p5604
g26
sVthree-wood
p5605
g26
sVtrimmed
p5606
g68
sVerratic
p5607
g26
sVrelated
p5608
g68
sVNext
p5609
g244
sV88
p5610
g28
sVdoubled
p5611
g68
sVWhich
p5612
g1620
sV83
p5613
g98
sV80
p5614
g28
sV81
p5615
g28
sV86
p5616
g28
sV87
p5617
g28
sV85
p5618
g28
sVrespects
p5619
g95
sVNearly
p5620
g48
sVintegrated
p5621
g68
sVThis
p5622
g140
sVpromptly
p5623
g48
sVovertake
p5624
g32
sVsegregated
p5625
g68
sVgrass-green
p5626
g26
sVhence
p5627
g48
sVgentlemanly
p5628
g26
sVeleventh
p5629
g58
sVproposing
p5630
g34
sVfilial
p5631
g26
sVLocal
p5632
g1444
sVdoesn't
p5633
VVERB
p5634
sVsalutary
p5635
g26
sVNorth
p5636
g40
sVtop-ranking
p5637
g26
sVunknown
p5638
g26
sVwagging
p5639
g34
sVtheir
p5640
g149
sV1500
p5641
g28
sVreflecting
p5642
g34
sVOutstanding
p5643
g40
sVarouse
p5644
g32
sV1.5
p5645
g28
sVgloomily
p5646
g48
sVIndependent
p5647
g40
sVafraid
p5648
g26
sVAfter
p5649
g244
sVwhich
p5650
g1620
sVcombat
p5651
g32
sVwho
p5652
VPRON
p5653
sVwhy
p5654
g488
sVdiscourage
p5655
g32
sVCustomary
p5656
g26
sVneighboring
p5657
g34
sVSqueezed
p5658
g68
sVlooked
p5659
g54
sVensued
p5660
g54
sVdying
p5661
g34
sVbalding
p5662
g26
sVagreed
p5663
g68
sVChemical
p5664
g40
sVplanning
p5665
g34
sVutter
p5666
g26
sVfear
p5667
g32
sVpleased
p5668
g68
sVbottling
p5669
g34
sVha
p5670
g548
sVlocal
p5671
g26
sVspun
p5672
g54
sVprosecute
p5673
g32
sVsued
p5674
g68
sVwatching
p5675
g34
sVcoordinating
p5676
g34
sVmarried
p5677
g68
sVBoth
p5678
g2422
sVpre-Easter
p5679
g26
sVview
p5680
g36
sVavailable
p5681
g26
sVacquired
p5682
g68
sVmerits
p5683
g95
sVcloser
p5684
g564
sVtelevised
p5685
g68
sV15-1
p5686
g28
sVmonstrous
p5687
g26
sVfavor
p5688
g36
sVwelled
p5689
g54
sVclosed
p5690
g68
sVfrustrated
p5691
g68
sVflashy
p5692
g26
sVopening
p5693
g34
sVprobing
p5694
g34
sVswift
p5695
g26
sVdiehard
p5696
g26
sVtactical
p5697
g26
sVsafely
p5698
g48
sVwalk
p5699
g32
sVsubscribe
p5700
g32
sVFinally
p5701
g48
sVconfronts
p5702
g95
sVnarrowed
p5703
g68
sVconnotes
p5704
g95
sVRegrets
p5705
g354
sVi.e.
p5706
g48
sVdecent
p5707
g26
sVunspoken
p5708
g26
sV734
p5709
g98
sVenlarging
p5710
g34
sV8-year-old
p5711
g26
sVsufficient
p5712
g26
sVmeritorious
p5713
g26
sVwalloping
p5714
g34
sVtangible
p5715
g26
sVpresent
p5716
g26
sVabandoned
p5717
g68
sVunlike
p5718
g244
sVirate
p5719
g26
sVwill
p5720
g220
sVwild
p5721
g26
sVDistributive
p5722
g40
sVringing
p5723
g34
sVten-month
p5724
g26
sV1.09.3
p5725
g28
sVthus
p5726
g122
sVdisapprove
p5727
g32
sVfar-out
p5728
g26
sVimprudently
p5729
g48
sVperhaps
p5730
g48
sVunite
p5731
g32
sVadverse
p5732
g26
sVgeographical
p5733
g26
sVlargest
p5734
g259
sVgets
p5735
g354
sVprivileged
p5736
g26
sVdifficult
p5737
g26
sVretarded
p5738
g68
sVmutual
p5739
g26
sV9:40
p5740
g28
sVundertakes
p5741
g95
sVwhole
p5742
g26
sVfighting
p5743
g34
sVundertaken
p5744
g68
sVexcessive
p5745
g26
sVheavily
p5746
g48
sVwealthy
p5747
g26
sVobtain
p5748
g32
sVfishing
p5749
g34
sVrapid
p5750
g26
sVsupply
p5751
g32
sVsemipublic
p5752
g26
sVblue-uniformed
p5753
g26
sVattractive
p5754
g26
sVunprecedented
p5755
g26
sVenact
p5756
g32
sVidentical
p5757
g26
sVReared
p5758
g68
sVcaptivating
p5759
g26
sVknow
p5760
g32
sVpress
p5761
g36
sV300-450
p5762
g28
sVWithin
p5763
g244
sVloses
p5764
g354
sVstarred
p5765
g68
sVbecause
p5766
g30
sVventilates
p5767
g95
sV5155
p5768
g98
sV114
p5769
g28
sV116
p5770
g98
sV111
p5771
g98
sV110
p5772
g28
sVablaze
p5773
g48
sVlead
p5774
g36
sVlean
p5775
g26
sV14th
p5776
g275
sVmined
p5777
g54
sVdebuts
p5778
g95
sVlocate
p5779
g32
sVripped
p5780
g54
sVover-night
p5781
g26
sVBenched
p5782
g68
sVCampaigning
p5783
g34
sVrare
p5784
g26
sVcarried
p5785
g68
sVgetting
p5786
g34
sVurged
p5787
g54
sVcarries
p5788
g95
sVurges
p5789
g95
sVown
p5790
g26
sVpolished
p5791
g54
sVowe
p5792
g32
sVpromise
p5793
g32
sVhitting
p5794
g34
sV40-year-old
p5795
g26
sVtransfer
p5796
g32
sVpeppery
p5797
g26
sVkidding
p5798
g34
sV162
p5799
g28
sVGinning
p5800
g737
sVappointing
p5801
g34
sVmutter
p5802
g32
sVmailed
p5803
g68
sVselfish
p5804
g26
sVmade
p5805
g68
sVGold
p5806
g1444
sVwhether
p5807
g30
sVbelow
p5808
g244
sVdemonstrate
p5809
g32
sVno-driving
p5810
g26
sV1865
p5811
g28
sVinadequate
p5812
g26
sVmeaningless
p5813
g26
sVtrailing
p5814
g34
sVconspired
p5815
g68
sVThru
p5816
g244
sVincredible
p5817
g26
sVoverdeveloped
p5818
g68
sVother
p5819
g286
sVFive
p5820
g28
sVnormal
p5821
g26
sVincredibly
p5822
g122
sV1565
p5823
g98
sVkinda
p5824
g122
sVincurred
p5825
g68
sVupwards
p5826
g48
sValienated
p5827
g68
sVranks
p5828
g73
sVideological
p5829
g26
ssbag15
asg20
I2
sg21
(dp5830
((g26
tp5831
Vmerits
p5832
tp5833
g73
s((g1082
tp5834
Vso
p5835
tp5836
g122
s((g32
tp5837
Vhard
p5838
tp5839
g48
s((tVFirst
p5840
tp5841
g2243
s((g127
tp5842
Vwhole
p5843
tp5844
g26
s((g32
tp5845
Vhigher
p5846
tp5847
g1790
s((g284
tp5848
Vthat
p5849
tp5850
g30
s((g284
tp5851
Voverhead
p5852
tp5853
g26
s((g127
tp5854
Vdeep
p5855
tp5856
g26
s((VNOUN
p5857
tp5858
Vnovel
p5859
tp5860
g36
s((g1762
tp5861
Vfinish
p5862
tp5863
g32
s((g36
tp5864
Vcharge
p5865
tp5866
g36
s((g790
tp5867
Vapproach
p5868
tp5869
g32
s((g1036
tp5870
Voff
p5871
tp5872
g1082
s((g26
tp5873
Vpitching
p5874
tp5875
g36
s((g26
tp5876
Vwish
p5877
tp5878
g36
s((g664
tp5879
VRoyal
p5880
tp5881
g40
s((g220
tp5882
Vcare
p5883
tp5884
g36
s((tVLocal
p5885
tp5886
g26
s((g748
tp5887
Vhits
p5888
tp5889
g354
s((g127
tp5890
Vmost
p5891
tp5892
g122
s((g1934
tp5893
Vrun
p5894
tp5895
g32
s((VNOUN
p5896
tp5897
Vtop
p5898
tp5899
g36
s((g244
tp5900
Vpresent
p5901
tp5902
g26
s((g95
tp5903
Vwage
p5904
tp5905
g36
s((g664
tp5906
Vpractices
p5907
tp5908
g95
s((g1036
tp5909
Vhip
p5910
tp5911
g36
s((g286
tp5912
Vjunior
p5913
tp5914
g36
s((g284
tp5915
Vgathering
p5916
tp5917
g34
s((g127
tp5918
Vsecond
p5919
tp5920
g58
s((g1934
tp5921
Vneed
p5922
tp5923
g32
s((g127
tp5924
Vwind
p5925
tp5926
g36
s((g28
tp5927
Vstart
p5928
tp5929
g36
s((g127
tp5930
Vmodel
p5931
tp5932
g26
s((g68
tp5933
Vexpress
p5934
tp5935
g36
s((g1036
tp5936
Vneither
p5937
tp5938
VDET
p5939
s((g169
tp5940
Vbetter
p5941
tp5942
g1790
s((g26
tp5943
Vpricing
p5944
tp5945
g36
s((g1036
tp5946
Vend
p5947
tp5948
g32
s((g220
tp5949
Vtotal
p5950
tp5951
g32
s((g122
tp5952
Vless
p5953
tp5954
g286
s((g73
tp5955
Vestimate
p5956
tp5957
g32
s((g26
tp5958
Vface
p5959
tp5960
g36
s((g73
tp5961
Vpride
p5962
tp5963
g32
s((g3493
tp5964
Vpresent
p5965
tp5966
g48
s((g127
tp5967
Vinside
p5968
tp5969
g36
s((g790
tp5970
Vcash
p5971
tp5972
g32
s((g122
tp5973
Vreal
p5974
tp5975
g122
s((g790
tp5976
Vfavor
p5977
tp5978
g32
s((g68
tp5979
Vfielding
p5980
tp5981
g1356
s((g790
tp5982
Vfight
p5983
tp5984
g32
s((g1036
tp5985
Von
p5986
tp5987
g244
s((g122
tp5988
Vnear
p5989
tp5990
g48
s((g109
tp5991
Vroute
p5992
tp5993
g109
s((g216
tp5994
Vshow
p5995
tp5996
g32
s((g284
tp5997
Vmother
p5998
tp5999
g32
s((tVThere
p6000
tp6001
g1978
s((g220
tp6002
Vvote
p6003
tp6004
g32
s((g73
tp6005
Vquestion
p6006
tp6007
g32
s((g220
tp6008
Vamount
p6009
tp6010
g32
s((g244
tp6011
Vhearing
p6012
tp6013
g34
s((g284
tp6014
Vmore
p6015
tp6016
g286
s((g73
tp6017
Vaccount
p6018
tp6019
g697
s((g127
tp6020
Vstretch
p6021
tp6022
g36
s((g1082
tp6023
Vmost
p6024
tp6025
g286
s((g40
tp6026
VExecutive
p6027
tp6028
g1444
s((g26
tp6029
Venough
p6030
tp6031
g3054
s((g244
tp6032
Vstrengthening
p6033
tp6034
g34
s((g127
tp6035
Vaverage
p6036
tp6037
g26
s((g1934
tp6038
Vas
p6039
tp6040
g30
s((g73
tp6041
Vstraight
p6042
tp6043
g48
s((g244
tp6044
Vher
p6045
tp6046
g149
s((g284
tp6047
VRed
p6048
tp6049
g664
s((g790
tp6050
Vstudy
p6051
tp6052
g32
s((g127
tp6053
Vgo
p6054
tp6055
g36
s((g149
tp6056
Vviews
p6057
tp6058
g73
s((g36
tp6059
Vmost
p6060
tp6061
g122
s((g36
tp6062
Vpitching
p6063
tp6064
g34
s((g127
tp6065
Vtop
p6066
tp6067
g1305
s((g286
tp6068
Vgas
p6069
tp6070
g32
s((g48
tp6071
Vher
p6072
tp6073
g149
s((g2534
tp6074
Vto
p6075
tp6076
g790
s((g127
tp6077
Vcorrect
p6078
tp6079
g26
s((g122
tp6080
Vearly
p6081
tp6082
g48
s((g790
tp6083
Vrisk
p6084
tp6085
g32
s((g54
tp6086
Vabout
p6087
tp6088
g244
s((g1036
tp6089
Vrather
p6090
tp6091
g48
s((g70
tp6092
Vhelp
p6093
tp6094
g697
s((g32
tp6095
Vclaim
p6096
tp6097
g32
s((g34
tp6098
Vcloser
p6099
tp6100
g564
s((g790
tp6101
Vwork
p6102
tp6103
g32
s((g149
tp6104
Vmaking
p6105
tp6106
g36
s((g127
tp6107
Vanswer
p6108
tp6109
g36
s((g220
tp6110
Vcost
p6111
tp6112
g32
s((g1036
tp6113
Vjust
p6114
tp6115
g48
s((g68
tp6116
Vlook
p6117
tp6118
g36
s((g244
tp6119
Vmighty
p6120
tp6121
g26
s((g3198
tp6122
Vbest
p6123
tp6124
g259
s((g127
tp6125
Vofficial
p6126
tp6127
g26
s((g26
tp6128
Vschooling
p6129
tp6130
g36
s((g127
tp6131
Vroutine
p6132
tp6133
g36
s((g284
tp6134
Vstriking
p6135
tp6136
g34
s((g109
tp6137
VDe
p6138
tp6139
g109
s((g122
tp6140
Vlate
p6141
tp6142
g48
s((g1776
tp6143
Veven
p6144
tp6145
g122
s((g36
tp6146
Vchief
p6147
tp6148
g1305
s((g73
tp6149
Vlate
p6150
tp6151
g48
s((g284
tp6152
Vhits
p6153
tp6154
g95
s((g26
tp6155
Vset
p6156
tp6157
g36
s((g127
tp6158
Vsubstitute
p6159
tp6160
g26
s((g48
tp6161
Vrequest
p6162
tp6163
g32
s((g36
tp6164
Vflies
p6165
tp6166
g354
s((g1934
tp6167
Vback
p6168
tp6169
g48
s((g220
tp6170
Vshare
p6171
tp6172
g32
s((g73
tp6173
Vmore
p6174
tp6175
g286
s((g34
tp6176
Vbecause
p6177
tp6178
g48
s((g54
tp6179
Vfor
p6180
tp6181
g244
s((g73
tp6182
Vfine
p6183
tp6184
g36
s((g244
tp6185
Vforce
p6186
tp6187
g36
s((g790
tp6188
Vwhile
p6189
tp6190
g32
s((g149
tp6191
Vnewly
p6192
tp6193
g48
s((g36
tp6194
Vfirst
p6195
tp6196
g58
s((g5857
tp6197
Vpast
p6198
tp6199
g36
s((tVBest
p6200
tp6201
g259
s((g1036
tp6202
Vprincipal
p6203
tp6204
g36
s((g32
tp6205
Vnear
p6206
tp6207
g244
s((g127
tp6208
Vmatch
p6209
tp6210
g36
s((g36
tp6211
Vmarks
p6212
tp6213
g95
s((g26
tp6214
Vvisit
p6215
tp6216
g36
s((g127
tp6217
Vlighter
p6218
tp6219
g36
s((g36
tp6220
Vpay
p6221
tp6222
g36
s((g48
tp6223
Vbecause
p6224
tp6225
g30
s((g26
tp6226
Vthat
p6227
tp6228
g30
s((g244
tp6229
Vpay
p6230
tp6231
g36
s((g26
tp6232
VYankee
p6233
tp6234
g40
s((g5357
tp6235
Vneither
p6236
tp6237
g1036
s((g127
tp6238
Vstop
p6239
tp6240
g36
s((g149
tp6241
Vleft
p6242
tp6243
g26
s((g664
tp6244
Vacross
p6245
tp6246
g244
s((g284
tp6247
Vround
p6248
tp6249
g32
s((g26
tp6250
Vsign
p6251
tp6252
g36
s((g4634
tp6253
Vas
p6254
tp6255
g30
s((g36
tp6256
Vfinance
p6257
tp6258
g36
s((g664
tp6259
VGreen
p6260
tp6261
g664
s((g36
tp6262
Varound
p6263
tp6264
g48
s((VNOUN
p6265
tp6266
Vmail
p6267
tp6268
g36
s((g28
tp6269
Vpass
p6270
tp6271
g36
s((g73
tp6272
Vview
p6273
tp6274
g32
s((g284
tp6275
Vabout
p6276
tp6277
g48
s((g443
tp6278
Vend
p6279
tp6280
g32
s((g26
tp6281
Vearly
p6282
tp6283
g48
s((g122
tp6284
Vfast
p6285
tp6286
g48
s((g284
tp6287
Vconcern
p6288
tp6289
g32
s((g32
tp6290
Vup
p6291
tp6292
g1082
s((g48
tp6293
Valong
p6294
tp6295
g48
s((g790
tp6296
Vblock
p6297
tp6298
g32
s((g127
tp6299
Vsingle
p6300
tp6301
g286
s((g790
tp6302
Vchange
p6303
tp6304
g32
s((g95
tp6305
Vmost
p6306
tp6307
VADV
p6308
s((g244
tp6309
Veither
p6310
tp6311
g1036
s((g36
tp6312
Vfurther
p6313
tp6314
g1790
s((g26
tp6315
Vcriminal
p6316
tp6317
g36
s((g220
tp6318
Vsense
p6319
tp6320
g32
s((g127
tp6321
Vexempt
p6322
tp6323
g26
s((g127
tp6324
Vpermit
p6325
tp6326
g36
s((g244
tp6327
Vminor
p6328
tp6329
g26
s((g790
tp6330
Vplant
p6331
tp6332
g32
s((g140
tp6333
Vmight
p6334
tp6335
g36
s((g24
tp6336
Vshipping
p6337
tp6338
g36
s((g790
tp6339
Vcheck
p6340
tp6341
g32
s((g36
tp6342
Vcosts
p6343
tp6344
g73
s((g1305
tp6345
Vofficial
p6346
tp6347
g26
s((g48
tp6348
Vpatient
p6349
tp6350
g26
s((g244
tp6351
Vup
p6352
tp6353
g244
s((g284
tp6354
Vthough
p6355
tp6356
g48
s((g220
tp6357
Vrun
p6358
tp6359
g32
s((g1776
tp6360
Vmore
p6361
tp6362
g122
s((g32
tp6363
Vdown
p6364
tp6365
g1082
s((VNOUN
p6366
tp6367
Vmaster
p6368
tp6369
g36
s((g127
tp6370
Vabove
p6371
tp6372
g48
s((g664
tp6373
g126
tp6374
g36
s((g443
tp6375
Vdown
p6376
tp6377
g1082
s((g2780
tp6378
Vplans
p6379
tp6380
g95
s((g244
tp6381
Vmine
p6382
tp6383
g2822
s((g26
tp6384
Vhigh
p6385
tp6386
g26
s((g5857
tp6387
Vhit
p6388
tp6389
g54
s((g68
tp6390
Vupon
p6391
tp6392
g244
s((VPRT
p6393
tp6394
Vto
p6395
tp6396
VADP
p6397
s((g127
tp6398
Vclose
p6399
tp6400
g26
s((g443
tp6401
Vbecause
p6402
tp6403
g48
s((g664
tp6404
Vlines
p6405
tp6406
g73
s((g68
tp6407
Vmore
p6408
tp6409
g286
s((g284
tp6410
VGeneral
p6411
tp6412
g1444
s((g1934
tp6413
Vonly
p6414
tp6415
g48
s((g220
tp6416
Vdivorce
p6417
tp6418
g32
s((g36
tp6419
Vearly
p6420
tp6421
g48
s((g1036
tp6422
Vtougher
p6423
tp6424
g564
s((g127
tp6425
Vearly
p6426
tp6427
g26
s((g26
tp6428
Vuse
p6429
tp6430
g36
s((g664
tp6431
Vcredits
p6432
tp6433
g95
s((g2780
tp6434
Vfurther
p6435
tp6436
g1790
s((g259
tp6437
Vcount
p6438
tp6439
g36
s((g122
tp6440
Vhalf
p6441
tp6442
g583
s((tVTo
p6443
tp6444
g790
s((g284
tp6445
VAs
p6446
tp6447
g30
s((g127
tp6448
VWest
p6449
tp6450
VX
p6451
s((g127
tp6452
Vcall
p6453
tp6454
g36
s((g1790
tp6455
Vattack
p6456
tp6457
g32
s((g443
tp6458
Vas
p6459
tp6460
g244
s((g1762
tp6461
Vacross
p6462
tp6463
g244
s((g36
tp6464
Vspending
p6465
tp6466
g36
s((g73
tp6467
Vlong
p6468
tp6469
g26
s((g284
tp6470
Vranks
p6471
tp6472
g95
s((g244
tp6473
Vencouraging
p6474
tp6475
g34
s((g26
tp6476
Vplay
p6477
tp6478
g36
s((g48
tp6479
Vvote
p6480
tp6481
g32
s((g244
tp6482
Vsuch
p6483
tp6484
g26
s((g140
tp6485
Vplay
p6486
tp6487
g36
s((g220
tp6488
Vstudy
p6489
tp6490
g32
s((g122
tp6491
Vbrown
p6492
tp6493
g26
s((g1082
tp6494
Vsuch
p6495
tp6496
VPRT
p6497
s((g36
tp6498
Vissue
p6499
tp6500
g36
s((g216
tp6501
Vwork
p6502
tp6503
g32
s((g1036
tp6504
g678
tp6505
g216
s((g220
tp6506
Vmass
p6507
tp6508
g32
s((g216
tp6509
Vrather
p6510
tp6511
g48
s((g28
tp6512
Vshow
p6513
tp6514
g32
s((g68
tp6515
Vremains
p6516
tp6517
g73
s((g216
tp6518
Vstand
p6519
tp6520
g32
s((g48
tp6521
Vlike
p6522
tp6523
g30
s((g26
tp6524
Vgreen
p6525
tp6526
g36
s((g5857
tp6527
Viron
p6528
tp6529
g36
s((g36
tp6530
Vdue
p6531
tp6532
g26
s((g34
tp6533
Vturn
p6534
tp6535
g32
s((g36
tp6536
Vall
p6537
tp6538
g583
s((g122
tp6539
Vout
p6540
tp6541
g244
s((g1036
tp6542
Vbit
p6543
tp6544
g54
s((g244
tp6545
Vas
p6546
tp6547
g122
s((g36
tp6548
Vsupplies
p6549
tp6550
g95
s((g73
tp6551
Vopen
p6552
tp6553
g26
s((g127
tp6554
Vcut
p6555
tp6556
g36
s((g1444
tp6557
Vfair
p6558
tp6559
g36
s((g790
tp6560
Vplan
p6561
tp6562
g32
s((g127
tp6563
Vordinary
p6564
tp6565
g26
s((g73
tp6566
Vrun
p6567
tp6568
g36
s((g220
tp6569
Vpost
p6570
tp6571
g32
s((g220
tp6572
Vshow
p6573
tp6574
g32
s((g790
tp6575
Vsacrifice
p6576
tp6577
g32
s((g488
tp6578
Voff
p6579
tp6580
g244
s((g127
tp6581
Vgrant
p6582
tp6583
g36
s((g664
tp6584
VLa
p6585
tp6586
g664
s((g1036
tp6587
Vhead
p6588
tp6589
g32
s((g68
tp6590
Voff
p6591
tp6592
g1082
s((g216
tp6593
Vneed
p6594
tp6595
g32
s((g244
tp6596
Vbuilding
p6597
tp6598
g34
s((g284
tp6599
Vrather
p6600
tp6601
g244
s((g73
tp6602
Vout
p6603
tp6604
g1082
s((g26
tp6605
Vteaching
p6606
tp6607
g36
s((g1041
tp6608
VDe
p6609
tp6610
g664
s((g34
tp6611
Vone
p6612
tp6613
g28
s((g284
tp6614
Vtrim
p6615
tp6616
g26
s((g284
tp6617
Vgrant
p6618
tp6619
g36
s((g1036
tp6620
Vwork
p6621
tp6622
g32
s((g127
tp6623
Vwhile
p6624
tp6625
g36
s((g244
tp6626
Vlow
p6627
tp6628
g26
s((g1036
tp6629
Vabout
p6630
tp6631
g48
s((g216
tp6632
Vchallenge
p6633
tp6634
g32
s((g36
tp6635
Vremarks
p6636
tp6637
g95
s((g73
tp6638
Vin
p6639
tp6640
g244
s((g127
tp6641
Vveteran
p6642
tp6643
g36
s((g220
tp6644
Vhonor
p6645
tp6646
g32
s((g68
tp6647
Vlearning
p6648
tp6649
g34
s((g284
tp6650
Vwell
p6651
tp6652
g122
s((g244
tp6653
Vbuying
p6654
tp6655
g34
s((g26
tp6656
Vspread
p6657
tp6658
g36
s((g1620
tp6659
Vlong
p6660
tp6661
g26
s((g790
tp6662
Vstep
p6663
tp6664
g32
s((g68
tp6665
Vbut
p6666
tp6667
g1036
s((g664
tp6668
Vlikely
p6669
tp6670
g48
s((g127
tp6671
Vgross
p6672
tp6673
g26
s((g664
tp6674
Vshot
p6675
tp6676
g36
s((g26
tp6677
Vearlier
p6678
tp6679
g564
s((g790
tp6680
Vfly
p6681
tp6682
g32
s((g36
tp6683
Vto
p6684
tp6685
g790
s((g1444
tp6686
Vcover
p6687
tp6688
g36
s((g1875
tp6689
Vattack
p6690
tp6691
g697
s((g34
tp6692
Vplays
p6693
tp6694
g73
s((g790
tp6695
Vdemand
p6696
tp6697
g32
s((g36
tp6698
Vtouches
p6699
tp6700
g95
s((g284
tp6701
Vup
p6702
tp6703
g1082
s((g790
tp6704
Vlike
p6705
tp6706
g32
s((g122
tp6707
Vlow
p6708
tp6709
g48
s((g1444
tp6710
VTheatre
p6711
tp6712
g1444
s((g26
tp6713
Vbrand
p6714
tp6715
g36
s((g32
tp6716
Vfirm
p6717
tp6718
g36
s((g244
tp6719
Vmuch
p6720
tp6721
g286
s((g790
tp6722
Vname
p6723
tp6724
g32
s((g664
tp6725
Vplans
p6726
tp6727
g73
s((g149
tp6728
Vhopes
p6729
tp6730
g73
s((g664
tp6731
Vconvertible
p6732
tp6733
g36
s((g1036
tp6734
Vlay
p6735
tp6736
g26
s((g28
tp6737
Vout
p6738
tp6739
g1082
s((g244
tp6740
Vlay
p6741
tp6742
g26
s((g1082
tp6743
Vup
p6744
tp6745
g1082
s((g748
tp6746
Vdoubles
p6747
tp6748
g354
s((g284
tp6749
Vreports
p6750
tp6751
g95
s((g28
tp6752
Vway
p6753
tp6754
g122
s((g284
tp6755
Vpermits
p6756
tp6757
g73
s((g244
tp6758
Vprimary
p6759
tp6760
g26
s((g790
tp6761
Vrace
p6762
tp6763
g32
s((g748
tp6764
Vhonor
p6765
tp6766
g218
s((g54
tp6767
Vbuilding
p6768
tp6769
g34
s((g127
tp6770
Vcorps
p6771
tp6772
g36
s((g244
tp6773
Vno
p6774
tp6775
g127
s((g1934
tp6776
Vsupport
p6777
tp6778
g32
s((g127
tp6779
VAmerican
p6780
tp6781
g26
s((g790
tp6782
Vprofit
p6783
tp6784
g32
s((g220
tp6785
Vcomplete
p6786
tp6787
g32
s((tVOnly
p6788
tp6789
g48
s((g1036
tp6790
Vland
p6791
tp6792
g32
s((g790
tp6793
Vreport
p6794
tp6795
g32
s((g790
tp6796
Vback
p6797
tp6798
g32
s((g127
tp6799
Vkey
p6800
tp6801
g36
s((g790
tp6802
Vcampaign
p6803
tp6804
g32
s((g127
tp6805
Vfeel
p6806
tp6807
g36
s((g216
tp6808
Vnote
p6809
tp6810
g32
s((g26
tp6811
Vamount
p6812
tp6813
g36
s((g284
tp6814
Vshare
p6815
tp6816
g32
s((g26
tp6817
Vhit
p6818
tp6819
g32
s((g127
tp6820
Vfull
p6821
tp6822
g26
s((g73
tp6823
Vcalls
p6824
tp6825
g95
s((g127
tp6826
Vbuilding
p6827
tp6828
g34
s((g664
tp6829
Vstate
p6830
tp6831
g36
s((g790
tp6832
Vsize
p6833
tp6834
g32
s((g140
tp6835
Vmeans
p6836
tp6837
g73
s((g1041
tp6838
VWhite
p6839
tp6840
g1444
s((g82
tp6841
Vreport
p6842
tp6843
g218
s((g36
tp6844
Vmale
p6845
tp6846
g36
s((g73
tp6847
Vcauses
p6848
tp6849
g95
s((g73
tp6850
Vreport
p6851
tp6852
g32
s((g127
tp6853
Vobject
p6854
tp6855
g36
s((g284
tp6856
Vencouraging
p6857
tp6858
g34
s((g991
tp6859
Vmuch
p6860
tp6861
g122
s((g284
tp6862
Vsuch
p6863
tp6864
g26
s((g790
tp6865
Vshow
p6866
tp6867
g32
s((g790
tp6868
Vhonor
p6869
tp6870
g32
s((g26
tp6871
Vturn
p6872
tp6873
g36
s((g1036
tp6874
g126
tp6875
g36
s((g26
tp6876
VGerman
p6877
tp6878
g664
s((g1934
tp6879
Vtouch
p6880
tp6881
g32
s((g220
tp6882
Vlike
p6883
tp6884
g30
s((g284
tp6885
VEast
p6886
tp6887
g6451
s((g26
tp6888
Vfeed
p6889
tp6890
g36
s((g36
tp6891
Vfaces
p6892
tp6893
g95
s((g127
tp6894
VSocialist
p6895
tp6896
g40
s((g1444
tp6897
VGen.
p6898
tp6899
g40
s((g5653
tp6900
Vmost
p6901
tp6902
g286
s((g95
tp6903
Vpretty
p6904
tp6905
g122
s((g790
tp6906
Vincrease
p6907
tp6908
g32
s((g149
tp6909
Vlives
p6910
tp6911
g73
s((g26
tp6912
Vlift
p6913
tp6914
g36
s((g127
tp6915
VBritish
p6916
tp6917
g26
s((g26
tp6918
Vharvesting
p6919
tp6920
g34
s((g127
tp6921
Vflat
p6922
tp6923
g36
s((g48
tp6924
Vto
p6925
tp6926
g790
s((g1036
tp6927
Vadvisory
p6928
tp6929
g26
s((g354
tp6930
Vwild
p6931
tp6932
g2243
s((g5857
tp6933
VRepublican
p6934
tp6935
g1041
s((VDET
p6936
tp6937
Vwitness
p6938
tp6939
g697
s((g220
tp6940
Vmarch
p6941
tp6942
g32
s((g664
tp6943
Vneed
p6944
tp6945
g36
s((g3717
tp6946
Vwork
p6947
tp6948
g32
s((g34
tp6949
Vpast
p6950
tp6951
g244
s((g149
tp6952
Vpitching
p6953
tp6954
g34
s((g109
tp6955
VBallet
p6956
tp6957
g109
s((g284
tp6958
Vpast
p6959
tp6960
g26
s((g790
tp6961
Vassociate
p6962
tp6963
g32
s((g149
tp6964
Vvisit
p6965
tp6966
g36
s((g1444
tp6967
VPacific
p6968
tp6969
g1041
s((g68
tp6970
Vfit
p6971
tp6972
g26
s((g26
tp6973
Vall
p6974
tp6975
g583
s((g73
tp6976
Vpoint
p6977
tp6978
g36
s((g216
tp6979
Vown
p6980
tp6981
g32
s((g220
tp6982
Vapproach
p6983
tp6984
g32
s((g1036
tp6985
Vopen
p6986
tp6987
g32
s((g26
tp6988
Vbargaining
p6989
tp6990
g36
s((g790
tp6991
Vrush
p6992
tp6993
g32
s((g26
tp6994
Vfair
p6995
tp6996
g36
s((g26
tp6997
Vwhile
p6998
tp6999
g30
s((g220
tp7000
Vsponsor
p7001
tp7002
g32
s((g127
tp7003
Vgood
p7004
tp7005
g26
s((g284
tp7006
Vwork
p7007
tp7008
g32
s((g30
tp7009
Vone
p7010
tp7011
g28
s((g122
tp7012
Vmuch
p7013
tp7014
g286
s((g790
tp7015
Vregard
p7016
tp7017
g32
s((g36
tp7018
Vplanning
p7019
tp7020
g34
s((g26
tp7021
Vroll
p7022
tp7023
g36
s((g244
tp7024
Vfilling
p7025
tp7026
g34
s((g127
tp7027
Vlast
p7028
tp7029
g286
s((g790
tp7030
Vscore
p7031
tp7032
g32
s((g73
tp7033
Vup
p7034
tp7035
g6393
s((g127
tp7036
Vbetter
p7037
tp7038
g564
s((g26
tp7039
Vtotals
p7040
tp7041
g73
s((g34
tp7042
Vbreak
p7043
tp7044
g32
s((g790
tp7045
Vwait
p7046
tp7047
g32
s((g73
tp7048
Vrebel
p7049
tp7050
g32
s((g48
tp7051
Vstate
p7052
tp7053
g32
s((g220
tp7054
Vaccount
p7055
tp7056
g32
s((g48
tp7057
Venough
p7058
tp7059
g3054
s((g1041
tp7060
Vpublic
p7061
tp7062
g26
s((g73
tp7063
Vas
p7064
tp7065
g30
s((tg126
tp7066
g127
s((g1036
tp7067
Vonce
p7068
tp7069
g48
s((g26
tp7070
Vcorps
p7071
tp7072
g36
s((VADJ
p7073
tp7074
Vwin
p7075
tp7076
g697
s((g26
tp7077
Vso
p7078
tp7079
g30
s((g26
tp7080
Vcontrols
p7081
tp7082
g73
s((g1082
tp7083
Vhalf
p7084
tp7085
g48
s((g5857
tp7086
Vsingle
p7087
tp7088
g36
s((g790
tp7089
Vflow
p7090
tp7091
g32
s((g122
tp7092
Vpro
p7093
tp7094
g244
s((g127
tp7095
Vjunior
p7096
tp7097
g26
s((g220
tp7098
Vcampaign
p7099
tp7100
g32
s((g36
tp7101
Vteaching
p7102
tp7103
g36
s((g48
tp7104
Vdouble
p7105
tp7106
g26
s((g284
tp7107
Vplans
p7108
tp7109
g95
s((g284
tp7110
Vpro
p7111
tp7112
g26
s((g244
tp7113
Vthere
p7114
tp7115
g1978
s((VCONJ
p7116
tp7117
Vthere
p7118
tp7119
g1978
s((g122
tp7120
Vfaster
p7121
tp7122
g564
s((tVPrincipal
p7123
tp7124
g1305
s((g790
tp7125
Vhead
p7126
tp7127
g32
s((g284
tp7128
Vsign
p7129
tp7130
g36
s((g28
tp7131
Vstraight
p7132
tp7133
g26
s((g54
tp7134
Vunder
p7135
tp7136
g244
s((g5896
tp7137
Vsecond
p7138
tp7139
g58
s((g325
tp7140
Vplenty
p7141
tp7142
g36
s((g36
tp7143
Vgeneral
p7144
tp7145
g36
s((g220
tp7146
Vstand
p7147
tp7148
g32
s((g790
tp7149
Vblast
p7150
tp7151
g32
s((g36
tp7152
Vrather
p7153
tp7154
g244
s((g73
tp7155
Vprogram
p7156
tp7157
g36
s((g36
tp7158
Vdown
p7159
tp7160
g1082
s((g28
tp7161
VN.
p7162
tp7163
g40
s((g220
tp7164
Vhoneymoon
p7165
tp7166
g32
s((g244
tp7167
Vfuture
p7168
tp7169
g26
s((g34
tp7170
Vchief
p7171
tp7172
g36
s((g583
tp7173
Vabout
p7174
tp7175
g48
s((g220
tp7176
Vlack
p7177
tp7178
g32
s((g244
tp7179
Vhead
p7180
tp7181
g1305
s((g127
tp7182
Vbeat
p7183
tp7184
g36
s((g36
tp7185
Vbefore
p7186
tp7187
g244
s((g127
tp7188
Vuse
p7189
tp7190
g36
s((g244
tp7191
Vright
p7192
tp7193
g26
s((g28
tp7194
Vadvertising
p7195
tp7196
g36
s((g790
tp7197
Vrun
p7198
tp7199
g32
s((tVOver
p7200
tp7201
g244
s((g28
tp7202
Vmain
p7203
tp7204
g36
s((g127
tp7205
Vclaim
p7206
tp7207
g36
s((g790
tp7208
Vtest
p7209
tp7210
g32
s((VNOUN
p7211
tp7212
Vbut
p7213
tp7214
g1036
s((g5653
tp7215
Vdate
p7216
tp7217
g32
s((g220
tp7218
Vhouse
p7219
tp7220
g32
s((g36
tp7221
Vkeynote
p7222
tp7223
g32
s((g244
tp7224
Vall
p7225
tp7226
g583
s((g284
tp7227
Vchief
p7228
tp7229
g36
s((g790
tp7230
Vtally
p7231
tp7232
g32
s((g26
tp7233
Vpass
p7234
tp7235
g36
s((g127
tp7236
Vdraft
p7237
tp7238
g36
s((g122
tp7239
Vright
p7240
tp7241
g48
s((g26
tp7242
Vfeatures
p7243
tp7244
g73
s((tVBecause
p7245
tp7246
g48
s((g790
tp7247
Vrequest
p7248
tp7249
g32
s((g220
tp7250
Vdrive
p7251
tp7252
g32
s((g36
tp7253
Vtalk
p7254
tp7255
g32
s((g286
tp7256
Vtoss
p7257
tp7258
g36
s((g32
tp7259
Vbehind
p7260
tp7261
g48
s((g1762
tp7262
Vfirst
p7263
tp7264
g7073
s((g284
tp7265
VOnce
p7266
tp7267
g30
s((g127
tp7268
Vwarning
p7269
tp7270
g36
s((g32
tp7271
Vpublic
p7272
tp7273
g36
s((tVAlong
p7274
tp7275
g244
s((g109
tp7276
Vballet
p7277
tp7278
g109
s((g6265
tp7279
Vbuilding
p7280
tp7281
g36
s((g54
tp7282
Vway
p7283
tp7284
g122
s((g68
tp7285
Vall
p7286
tp7287
g583
s((g790
tp7288
Vbenefit
p7289
tp7290
g32
s((g127
tp7291
Vface
p7292
tp7293
g36
s((g1036
tp7294
Vthat
p7295
tp7296
g30
s((g790
tp7297
Vreview
p7298
tp7299
g32
s((g790
tp7300
Vstage
p7301
tp7302
g32
s((g2780
tp7303
Vbats
p7304
tp7305
g95
s((g790
tp7306
Vfurther
p7307
tp7308
g32
s((g284
tp7309
Vquite
p7310
tp7311
g122
s((g284
tp7312
Vone
p7313
tp7314
g28
s((g26
tp7315
Vediting
p7316
tp7317
g36
s((g68
tp7318
Vwhole
p7319
tp7320
g36
s((g220
tp7321
Vhand
p7322
tp7323
g32
s((g32
tp7324
Vher
p7325
tp7326
g149
s((g127
tp7327
Vgreen
p7328
tp7329
g36
s((g286
tp7330
Varound
p7331
tp7332
g244
s((g244
tp7333
Vtop
p7334
tp7335
g36
s((g127
tp7336
VChief
p7337
tp7338
g1444
s((tVPretty
p7339
tp7340
g26
s((g564
tp7341
Vstart
p7342
tp7343
g36
s((g1036
tp7344
Vtop
p7345
tp7346
g32
s((g127
tp7347
Vtoast
p7348
tp7349
g36
s((g127
tp7350
Vwalk
p7351
tp7352
g36
s((g36
tp7353
Vhigh
p7354
tp7355
g26
s((g26
tp7356
Vdriving
p7357
tp7358
g36
s((g48
tp7359
Vbut
p7360
tp7361
g244
s((g220
tp7362
Vbenefit
p7363
tp7364
g32
s((g48
tp7365
Vneeds
p7366
tp7367
g95
s((g68
tp7368
Vbuying
p7369
tp7370
g34
s((g244
tp7371
Vlearning
p7372
tp7373
g34
s((g73
tp7374
Vbid
p7375
tp7376
g54
s((g149
tp7377
Vpromise
p7378
tp7379
g36
s((g1036
tp7380
Varound
p7381
tp7382
g244
s((VNOUN
p7383
tp7384
VGold
p7385
tp7386
g40
s((g5857
tp7387
Vthrow
p7388
tp7389
g36
s((g34
tp7390
Von
p7391
tp7392
g244
s((g36
tp7393
Vviews
p7394
tp7395
g95
s((g36
tp7396
Vonly
p7397
tp7398
g48
s((g1036
tp7399
Vshow
p7400
tp7401
g32
s((g28
tp7402
Vthat
p7403
tp7404
g5653
s((g790
tp7405
Vchallenge
p7406
tp7407
g32
s((g127
tp7408
Vopening
p7409
tp7410
g34
s((g26
tp7411
Vdouble
p7412
tp7413
g36
s((g284
tp7414
Vmost
p7415
tp7416
g286
s((g1036
tp7417
Vwhite
p7418
tp7419
g26
s((g4634
tp7420
Vshot
p7421
tp7422
g68
s((g73
tp7423
Vabout
p7424
tp7425
g244
s((g68
tp7426
Vthere
p7427
tp7428
g1978
s((g36
tp7429
Vinstitute
p7430
tp7431
g36
s((g244
tp7432
VEnglish
p7433
tp7434
g664
s((g48
tp7435
Vso
p7436
tp7437
g122
s((g1444
tp7438
Vpack
p7439
tp7440
g36
s((g122
tp7441
Vpresent
p7442
tp7443
g48
s((g73
tp7444
Von
p7445
tp7446
g244
s((g5896
tp7447
Vmove
p7448
tp7449
g32
s((g73
tp7450
Vworth
p7451
tp7452
g26
s((g1934
tp7453
Vopen
p7454
tp7455
g32
s((g790
tp7456
Vcamp
p7457
tp7458
g32
s((g127
tp7459
Vform
p7460
tp7461
g36
s((g127
tp7462
Vmeet
p7463
tp7464
g36
s((g36
tp7465
Vmeans
p7466
tp7467
g95
s((g244
tp7468
Vfollowing
p7469
tp7470
g36
s((g790
tp7471
Vstructure
p7472
tp7473
g32
s((g36
tp7474
Vmoves
p7475
tp7476
g95
s((g127
tp7477
Vpotential
p7478
tp7479
g26
s((g26
tp7480
Vlong
p7481
tp7482
g48
s((g26
tp7483
Vstand
p7484
tp7485
g36
s((g1444
tp7486
VReport
p7487
tp7488
g1444
s((g1934
tp7489
Vdrive
p7490
tp7491
g32
s((g73
tp7492
Vlike
p7493
tp7494
g30
s((g1036
tp7495
Vdown
p7496
tp7497
g1082
s((g127
tp7498
Vsilver
p7499
tp7500
g26
s((g1036
tp7501
Vto
p7502
tp7503
g790
s((g26
tp7504
Vmeet
p7505
tp7506
g36
s((g284
tp7507
Vto
p7508
tp7509
g790
s((g5653
tp7510
Vflash
p7511
tp7512
g32
s((g244
tp7513
VChristian
p7514
tp7515
g26
s((g244
tp7516
Varound
p7517
tp7518
g48
s((g68
tp7519
Vdaily
p7520
tp7521
g48
s((tVAl
p7522
tp7523
g664
s((g244
tp7524
Vgreeting
p7525
tp7526
g34
s((g5896
tp7527
Vplays
p7528
tp7529
g73
s((g6366
tp7530
Vveteran
p7531
tp7532
g36
s((g1036
tp7533
Vneeds
p7534
tp7535
g95
s((g26
tp7536
Vserving
p7537
tp7538
g36
s((g1510
tp7539
VTo
p7540
tp7541
g345
s((g244
tp7542
Vuniform
p7543
tp7544
g26
s((g790
tp7545
Vact
p7546
tp7547
g32
s((g244
tp7548
Vadvance
p7549
tp7550
g36
s((g73
tp7551
Vpresent
p7552
tp7553
g48
s((g3198
tp7554
Vhearing
p7555
tp7556
g34
s((g443
tp7557
Voff
p7558
tp7559
g1082
s((g284
tp7560
Vassistant
p7561
tp7562
g26
s((g36
tp7563
Vstands
p7564
tp7565
g73
s((tVNeither
p7566
tp7567
g1036
s((g1036
tp7568
Vout
p7569
tp7570
g149
s((g284
tp7571
Vunderwater
p7572
tp7573
g48
s((g244
tp7574
Vimplement
p7575
tp7576
g36
s((g790
tp7577
Vpress
p7578
tp7579
g32
s((g220
tp7580
Vincrease
p7581
tp7582
g32
s((g48
tp7583
Vsuggested
p7584
tp7585
g54
s((g73
tp7586
Vclerk
p7587
tp7588
g36
s((g73
tp7589
Vhigher
p7590
tp7591
g1790
s((g1036
tp7592
Vas
p7593
tp7594
g30
s((g26
tp7595
Vlook
p7596
tp7597
g36
s((g1762
tp7598
Vwide
p7599
tp7600
g48
s((g36
tp7601
Vopening
p7602
tp7603
g36
s((g32
tp7604
Vcount
p7605
tp7606
g32
s((g26
tp7607
Vfine
p7608
tp7609
g36
s((g1036
tp7610
Vcloser
p7611
tp7612
g1790
s((g73
tp7613
Vdecline
p7614
tp7615
g32
s((g284
tp7616
Vorder
p7617
tp7618
g32
s((g140
tp7619
Vamount
p7620
tp7621
g36
s((g73
tp7622
Vact
p7623
tp7624
g32
s((g40
tp7625
VAtlantic
p7626
tp7627
g1041
s((g36
tp7628
Vproviding
p7629
tp7630
g34
s((tVAs
p7631
tp7632
g244
s((g26
tp7633
Vpublic
p7634
tp7635
g26
s((g68
tp7636
Vto
p7637
tp7638
g790
s((g36
tp7639
Vplay
p7640
tp7641
g36
s((tVSecond
p7642
tp7643
g48
s((g1934
tp7644
Vcomment
p7645
tp7646
g32
s((g1041
tp7647
VRed
p7648
tp7649
g1444
s((g26
tp7650
Vas
p7651
tp7652
g30
s((g36
tp7653
Vbeginning
p7654
tp7655
g34
s((g244
tp7656
Vamateur
p7657
tp7658
g26
s((g244
tp7659
Vmore
p7660
tp7661
g286
s((g127
tp7662
Vnear
p7663
tp7664
g26
s((g48
tp7665
Vacross
p7666
tp7667
g244
s((g583
tp7668
Vover
p7669
tp7670
g244
s((g68
tp7671
Vindividual
p7672
tp7673
g36
s((g73
tp7674
Vfavor
p7675
tp7676
g32
s((g1444
tp7677
VMethodist
p7678
tp7679
g40
s((g32
tp7680
Vleft
p7681
tp7682
g68
s((g664
tp7683
Vlow
p7684
tp7685
g36
s((g26
tp7686
Vunderstanding
p7687
tp7688
g36
s((g36
tp7689
Vkicking
p7690
tp7691
g36
s((g3338
tp7692
Vstrip
p7693
tp7694
g32
s((g284
tp7695
Vdrive
p7696
tp7697
g32
s((g127
tp7698
Vdesigning
p7699
tp7700
g36
s((g127
tp7701
Vtraining
p7702
tp7703
g34
s((g284
tp7704
VNo
p7705
tp7706
g48
s((g284
tp7707
Vconsidering
p7708
tp7709
g244
s((g127
tp7710
Vlike
p7711
tp7712
g26
s((g443
tp7713
Vout
p7714
tp7715
g1082
s((g127
tp7716
Vsupply
p7717
tp7718
g36
s((g1762
tp7719
Vmuch
p7720
tp7721
g286
s((g127
tp7722
VRotary
p7723
tp7724
g664
s((g284
tp7725
Vso
p7726
tp7727
g30
s((g790
tp7728
Vfirst
p7729
tp7730
g48
s((g26
tp7731
Vdetail
p7732
tp7733
g36
s((g127
tp7734
Vglow
p7735
tp7736
g36
s((g284
tp7737
Vonly
p7738
tp7739
g286
s((g1036
tp7740
Vputt
p7741
tp7742
g32
s((g2422
tp7743
Vfigures
p7744
tp7745
g73
s((g149
tp7746
Vgala
p7747
tp7748
g36
s((g583
tp7749
Vpublic
p7750
tp7751
g36
s((g1934
tp7752
Vessential
p7753
tp7754
g26
s((g664
tp7755
Vcontracts
p7756
tp7757
g95
s((g284
tp7758
Vpowers
p7759
tp7760
g95
s((g790
tp7761
Vsell
p7762
tp7763
g32
s((g244
tp7764
VRussian
p7765
tp7766
g26
s((g790
tp7767
Vplace
p7768
tp7769
g32
s((g36
tp7770
Vcrossing
p7771
tp7772
g36
s((g1776
tp7773
Vfuture
p7774
tp7775
g36
s((g127
tp7776
VGerman
p7777
tp7778
g26
s((g244
tp7779
Vuse
p7780
tp7781
g36
s((g26
tp7782
Vgrant
p7783
tp7784
g36
s((g48
tp7785
Vcare
p7786
tp7787
g32
s((g26
tp7788
Vgraduates
p7789
tp7790
g73
s((g32
tp7791
Vlong
p7792
tp7793
g48
s((g36
tp7794
Vattack
p7795
tp7796
g36
s((g244
tp7797
Vlater
p7798
tp7799
g564
s((g54
tp7800
Vno
p7801
tp7802
g127
s((g127
tp7803
Vmaximum
p7804
tp7805
g26
s((g149
tp7806
Vimport
p7807
tp7808
g36
s((g790
tp7809
Vland
p7810
tp7811
g32
s((g73
tp7812
Vreward
p7813
tp7814
g32
s((g1036
tp7815
Vreport
p7816
tp7817
g32
s((g34
tp7818
Vpioneer
p7819
tp7820
g36
s((g36
tp7821
Vso
p7822
tp7823
g122
s((g1444
tp7824
Vbetter
p7825
tp7826
g564
s((g73
tp7827
Vtax
p7828
tp7829
g36
s((g244
tp7830
Vjuvenile
p7831
tp7832
g26
s((g26
tp7833
Vwind
p7834
tp7835
g36
s((g26
tp7836
Vpracticing
p7837
tp7838
g36
s((g790
tp7839
Vlast
p7840
tp7841
g32
s((g36
tp7842
Vpass
p7843
tp7844
g36
s((g2780
tp7845
Vcalls
p7846
tp7847
g95
s((g244
tp7848
Vgold
p7849
tp7850
g26
s((g73
tp7851
Vcounseling
p7852
tp7853
g36
s((g30
tp7854
Vmost
p7855
tp7856
g286
s((g664
tp7857
Vvotes
p7858
tp7859
g95
s((g68
tp7860
Vonly
p7861
tp7862
g48
s((g220
tp7863
Vend
p7864
tp7865
g32
s((g28
tp7866
Vto
p7867
tp7868
g244
s((g73
tp7869
Vrate
p7870
tp7871
g32
s((g36
tp7872
Vneeds
p7873
tp7874
g95
s((g26
tp7875
Vliving
p7876
tp7877
g36
s((g127
tp7878
Vmarvel
p7879
tp7880
g36
s((g54
tp7881
Vin
p7882
tp7883
g244
s((g68
tp7884
Vbefore
p7885
tp7886
g244
s((g58
tp7887
Vsingle
p7888
tp7889
g286
s((g1444
tp7890
Vlocal
p7891
tp7892
g36
s((g1444
tp7893
VExecutive
p7894
tp7895
g40
s((g26
tp7896
Vraise
p7897
tp7898
g36
s((g54
tp7899
Vreal
p7900
tp7901
g122
s((g790
tp7902
Vboost
p7903
tp7904
g32
s((g127
tp7905
Vsurprising
p7906
tp7907
g26
s((g30
tp7908
Vbecause
p7909
tp7910
g48
s((g127
tp7911
Vlive
p7912
tp7913
g26
s((g1444
tp7914
VTo
p7915
tp7916
g345
s((g443
tp7917
Vall
p7918
tp7919
g583
s((g284
tp7920
Valong
p7921
tp7922
g244
s((g1041
tp7923
VBallet
p7924
tp7925
g1444
s((g73
tp7926
Vaid
p7927
tp7928
g36
s((g790
tp7929
Vappeal
p7930
tp7931
g32
s((g127
tp7932
Vmove
p7933
tp7934
g36
s((g6366
tp7935
Vmilitary
p7936
tp7937
g36
s((g36
tp7938
Vpasses
p7939
tp7940
g95
s((g790
tp7941
Vend
p7942
tp7943
g32
s((g26
tp7944
Vstandard
p7945
tp7946
g36
s((g48
tp7947
Vlead
p7948
tp7949
g32
s((g32
tp7950
Vover
p7951
tp7952
g244
s((g122
tp7953
Vbetter
p7954
tp7955
g564
s((g127
tp7956
Vmanufacturing
p7957
tp7958
g34
s((g220
tp7959
Vjudge
p7960
tp7961
g32
s((g220
tp7962
Vlead
p7963
tp7964
g32
s((g790
tp7965
Vgain
p7966
tp7967
g32
s((g1790
tp7968
Von
p7969
tp7970
g244
s((g220
tp7971
Vrescue
p7972
tp7973
g32
s((g1934
tp7974
Vown
p7975
tp7976
g32
s((g220
tp7977
Vchange
p7978
tp7979
g32
s((g127
tp7980
Vstart
p7981
tp7982
g36
s((g5896
tp7983
Vadvertising
p7984
tp7985
g36
s((g36
tp7986
Vprincipal
p7987
tp7988
g36
s((g127
tp7989
Vlittle
p7990
tp7991
g122
s((g790
tp7992
Vyield
p7993
tp7994
g32
s((g1036
tp7995
Vcomplex
p7996
tp7997
g36
s((g54
tp7998
Vright
p7999
tp8000
g122
s((g26
tp8001
Vpro
p8002
tp8003
g36
s((g48
tp8004
Vbroadcast
p8005
tp8006
g68
s((g73
tp8007
Vcost
p8008
tp8009
g54
s((g2780
tp8010
Vrest
p8011
tp8012
g32
s((g790
tp8013
Vstand
p8014
tp8015
g32
s((g1036
tp8016
Vmore
p8017
tp8018
g286
s((g140
tp8019
Vmagic
p8020
tp8021
g26
s((g664
tp8022
Vworks
p8023
tp8024
g95
s((g216
tp8025
Vhead
p8026
tp8027
g32
s((tVFair
p8028
tp8029
g40
s((g127
tp8030
Vjoint
p8031
tp8032
g36
s((g58
tp8033
Vstop
p8034
tp8035
g36
s((g244
tp8036
Vturn
p8037
tp8038
g36
s((g73
tp8039
Vfigure
p8040
tp8041
g32
s((g1036
tp8042
Vamateur
p8043
tp8044
g26
s((g466
tp8045
Vthat
p8046
tp8047
g5653
s((g26
tp8048
Vcomplex
p8049
tp8050
g36
s((g127
tp8051
Vwish
p8052
tp8053
g36
s((g6265
tp8054
Vdisplay
p8055
tp8056
g32
s((g790
tp8057
Vdrop
p8058
tp8059
g32
s((g127
tp8060
Vteaching
p8061
tp8062
g36
s((g790
tp8063
Vstock
p8064
tp8065
g32
s((g790
tp8066
Vrear
p8067
tp8068
g32
s((g36
tp8069
Vshooting
p8070
tp8071
g36
s((g36
tp8072
Vmeet
p8073
tp8074
g36
s((g109
tp8075
g2284
tp8076
g109
s((g34
tp8077
Vearlier
p8078
tp8079
g1790
s((g127
tp8080
Vacademic
p8081
tp8082
g26
s((g127
tp8083
Vlocal
p8084
tp8085
g26
s((g54
tp8086
Vill
p8087
tp8088
g122
s((g36
tp8089
Vbetting
p8090
tp8091
g36
s((g26
tp8092
Vforce
p8093
tp8094
g36
s((g127
tp8095
Vset
p8096
tp8097
g36
s((g95
tp8098
Vearly
p8099
tp8100
g48
s((g149
tp8101
Vprimary
p8102
tp8103
g36
s((g36
tp8104
Vamount
p8105
tp8106
g32
s((g244
tp8107
Vhis
p8108
tp8109
g149
s((g244
tp8110
Vonly
p8111
tp8112
g286
s((g149
tp8113
Vacting
p8114
tp8115
g36
s((g26
tp8116
Vrose
p8117
tp8118
g36
s((g169
tp8119
Vnotice
p8120
tp8121
g32
s((g1762
tp8122
Vhope
p8123
tp8124
g36
s((g32
tp8125
Vhigh
p8126
tp8127
g26
s((g26
tp8128
Vinfluence
p8129
tp8130
g36
s((g127
tp8131
Vround
p8132
tp8133
g36
s((g36
tp8134
Vswim
p8135
tp8136
g36
s((g1036
tp8137
Vmost
p8138
tp8139
g286
s((g244
tp8140
VYankee
p8141
tp8142
g40
s((g127
tp8143
Vone
p8144
tp8145
g28
s((g697
tp8146
Vcut
p8147
tp8148
g68
s((g1082
tp8149
Vthere
p8150
tp8151
g48
s((g26
tp8152
Vyet
p8153
tp8154
g1036
s((tVSo
p8155
tp8156
g48
s((g220
tp8157
Vtrain
p8158
tp8159
g32
s((g127
tp8160
Vhit
p8161
tp8162
g36
s((g127
tp8163
Vroll
p8164
tp8165
g36
s((tVThen
p8166
tp8167
g48
s((g26
tp8168
Vwalk
p8169
tp8170
g36
s((g36
tp8171
Vtraining
p8172
tp8173
g36
s((g3493
tp8174
Vbetter
p8175
tp8176
g1790
s((g1762
tp8177
Vlate
p8178
tp8179
g48
s((g220
tp8180
Vopen
p8181
tp8182
g32
s((g286
tp8183
Vinternational
p8184
tp8185
g36
s((g284
tp8186
Vas
p8187
tp8188
g30
s((g790
tp8189
Vrule
p8190
tp8191
g32
s((g127
tp8192
Vmoral
p8193
tp8194
g26
s((g790
tp8195
Vreturn
p8196
tp8197
g32
s((g169
tp8198
Vrather
p8199
tp8200
g48
s((g36
tp8201
Vlight
p8202
tp8203
g26
s((g664
tp8204
VChristian
p8205
tp8206
g664
s((g26
tp8207
Vbreed
p8208
tp8209
g36
s((g73
tp8210
Vparade
p8211
tp8212
g32
s((g286
tp8213
VUnder
p8214
tp8215
g40
s((g48
tp8216
Vdaily
p8217
tp8218
g48
s((g1036
tp8219
Vtraining
p8220
tp8221
g34
s((g149
tp8222
Vplanning
p8223
tp8224
g36
s((g127
tp8225
Vrear
p8226
tp8227
g36
s((g244
tp8228
VGeneral
p8229
tp8230
g1444
s((g40
tp8231
VEast
p8232
tp8233
g6451
s((g5653
tp8234
Vfavor
p8235
tp8236
g32
s((g564
tp8237
Vpull
p8238
tp8239
g36
s((g564
tp8240
Vfinding
p8241
tp8242
g36
s((g36
tp8243
Vform
p8244
tp8245
g36
s((g26
tp8246
Vtalk
p8247
tp8248
g36
s((g127
tp8249
Vrepresentative
p8250
tp8251
g36
s((g127
tp8252
Vpurchase
p8253
tp8254
g36
s((g1036
tp8255
Vaverage
p8256
tp8257
g26
s((g5653
tp8258
Vmeans
p8259
tp8260
g95
s((g790
tp8261
Vshare
p8262
tp8263
g32
s((g149
tp8264
Vwill
p8265
tp8266
g220
s((g122
tp8267
Varound
p8268
tp8269
g48
s((g1934
tp8270
Vaccount
p8271
tp8272
g32
s((g169
tp8273
Vneed
p8274
tp8275
g32
s((g790
tp8276
Veffect
p8277
tp8278
g32
s((g6265
tp8279
Vlives
p8280
tp8281
g95
s((g1036
tp8282
Vexchange
p8283
tp8284
g32
s((g1036
tp8285
Vtotal
p8286
tp8287
g32
s((g149
tp8288
Vkind
p8289
tp8290
g36
s((g1036
tp8291
Vshort
p8292
tp8293
g48
s((g58
tp8294
Vwitness
p8295
tp8296
g36
s((tVBesides
p8297
tp8298
g48
s((g36
tp8299
Vfuture
p8300
tp8301
g697
s((g127
tp8302
Vcook
p8303
tp8304
g36
s((g127
tp8305
Vreading
p8306
tp8307
g36
s((g28
tp8308
Vstop
p8309
tp8310
g36
s((g32
tp8311
Vsuch
p8312
tp8313
g26
s((tVOne
p8314
tp8315
g28
s((g2780
tp8316
Vkids
p8317
tp8318
g95
s((g36
tp8319
Vright
p8320
tp8321
g122
s((g48
tp8322
Vsuch
p8323
tp8324
g6497
s((g1875
tp8325
Vmatter
p8326
tp8327
g32
s((g790
tp8328
Vstrike
p8329
tp8330
g32
s((g664
tp8331
VLittle
p8332
tp8333
g664
s((g284
tp8334
VSuch
p8335
tp8336
g6497
s((g2780
tp8337
Vfirst
p8338
tp8339
g48
s((g36
tp8340
Vraising
p8341
tp8342
g36
s((g127
tp8343
Vdrawing
p8344
tp8345
g34
s((g54
tp8346
Vkey
p8347
tp8348
g697
s((g443
tp8349
Veven
p8350
tp8351
g122
s((g48
tp8352
Vmore
p8353
tp8354
g1790
s((g26
tp8355
Vspeaking
p8356
tp8357
g36
s((g244
tp8358
Vleft
p8359
tp8360
g6265
s((g583
tp8361
Vthat
p8362
tp8363
g30
s((g443
tp8364
Vonly
p8365
tp8366
g48
s((g1305
tp8367
Vdining
p8368
tp8369
g36
s((g244
tp8370
Vto
p8371
tp8372
g244
s((g664
tp8373
Vreports
p8374
tp8375
g95
s((g140
tp8376
Vto
p8377
tp8378
g790
s((g36
tp8379
Vstay
p8380
tp8381
g36
s((g32
tp8382
Vthrough
p8383
tp8384
g244
s((g244
tp8385
VFrench
p8386
tp8387
g664
s((g790
tp8388
Vlower
p8389
tp8390
g32
s((g48
tp8391
Vshare
p8392
tp8393
g32
s((g127
tp8394
Vmust
p8395
tp8396
g220
s((g1934
tp8397
Vlearning
p8398
tp8399
g34
s((g36
tp8400
Vgood
p8401
tp8402
g36
s((g244
tp8403
Vmeeting
p8404
tp8405
g34
s((g36
tp8406
Vstarts
p8407
tp8408
g95
s((g48
tp8409
Vabout
p8410
tp8411
g48
s((g216
tp8412
Vlike
p8413
tp8414
g32
s((g28
tp8415
Vplays
p8416
tp8417
g73
s((g127
tp8418
Vwatch
p8419
tp8420
g36
s((g127
tp8421
Vintellectual
p8422
tp8423
g26
s((g244
tp8424
VItalian
p8425
tp8426
g40
s((g3198
tp8427
Vquite
p8428
tp8429
g122
s((g30
tp8430
VGerman
p8431
tp8432
g664
s((g26
tp8433
Vspraying
p8434
tp8435
g36
s((g127
tp8436
Vcommercial
p8437
tp8438
g26
s((g28
tp8439
Valternative
p8440
tp8441
g26
s((g73
tp8442
Vaward
p8443
tp8444
g36
s((g220
tp8445
Vclose
p8446
tp8447
g48
s((g259
tp8448
Vselling
p8449
tp8450
g26
s((g36
tp8451
Vbecause
p8452
tp8453
g30
s((g127
tp8454
Vhelp
p8455
tp8456
g36
s((g127
tp8457
Vdouble
p8458
tp8459
g36
s((g54
tp8460
Vwelcome
p8461
tp8462
g26
s((g790
tp8463
Vcontrol
p8464
tp8465
g32
s((g127
tp8466
Vwelcome
p8467
tp8468
g36
s((g127
tp8469
Vpublic
p8470
tp8471
g26
s((g127
tp8472
Vhead
p8473
tp8474
g36
s((g127
tp8475
Vedging
p8476
tp8477
g36
s((g36
tp8478
Vcharges
p8479
tp8480
g73
s((g26
tp8481
Vhousing
p8482
tp8483
g34
s((g244
tp8484
Vearlier
p8485
tp8486
g1790
s((g220
tp8487
Vequal
p8488
tp8489
g32
s((g127
tp8490
VEast
p8491
tp8492
g6451
s((g790
tp8493
Vgamble
p8494
tp8495
g32
s((g36
tp8496
Vwalk
p8497
tp8498
g36
s((g36
tp8499
Vrequests
p8500
tp8501
g73
s((g244
tp8502
Vsetting
p8503
tp8504
g34
s((g443
tp8505
Vin
p8506
tp8507
g244
s((g127
tp8508
Vprincipal
p8509
tp8510
g1305
s((g244
tp8511
Vthat
p8512
tp8513
g140
s((g244
tp8514
Vabout
p8515
tp8516
g48
s((g1036
tp8517
Vsingle
p8518
tp8519
g36
s((g583
tp8520
Valong
p8521
tp8522
g48
s((g697
tp8523
Vnear
p8524
tp8525
g244
s((g664
tp8526
Vbranch
p8527
tp8528
g32
s((g220
tp8529
Vplan
p8530
tp8531
g32
s((g748
tp8532
Vhonors
p8533
tp8534
g73
s((g73
tp8535
Vshow
p8536
tp8537
g36
s((g98
tp8538
VE.
p8539
tp8540
g40
s((g488
tp8541
Vthat
p8542
tp8543
g30
s((g127
tp8544
Vdraw
p8545
tp8546
g36
s((g109
tp8547
Vrun
p8548
tp8549
g68
s((g26
tp8550
Vround
p8551
tp8552
g36
s((g244
tp8553
Vlive
p8554
tp8555
g32
s((g244
tp8556
Vtiming
p8557
tp8558
g34
s((g220
tp8559
Vstep
p8560
tp8561
g32
s((g284
tp8562
Vfeeling
p8563
tp8564
g34
s((g647
tp8565
Vreturn
p8566
tp8567
g32
s((g122
tp8568
Vwell
p8569
tp8570
g48
s((g30
tp8571
Vlast
p8572
tp8573
g286
s((g127
tp8574
Vright
p8575
tp8576
g26
s((tVPlace
p8577
tp8578
g32
s((g5857
tp8579
Vfirm
p8580
tp8581
g36
s((g26
tp8582
Vmilitary
p8583
tp8584
g26
s((g1036
tp8585
Vchief
p8586
tp8587
g36
s((g244
tp8588
Vout
p8589
tp8590
g244
s((g26
tp8591
Vto
p8592
tp8593
g790
s((g284
tp8594
Vmeeting
p8595
tp8596
g34
s((g127
tp8597
Vhighest
p8598
tp8599
g259
s((g34
tp8600
Vmilitary
p8601
tp8602
g36
s((g127
tp8603
Vhope
p8604
tp8605
g36
s((g647
tp8606
Vlast
p8607
tp8608
g286
s((g127
tp8609
Vpast
p8610
tp8611
g286
s((g26
tp8612
Vnarcotic
p8613
tp8614
g36
s((g284
tp8615
Vsetting
p8616
tp8617
g34
s((g58
tp8618
Vbaking
p8619
tp8620
g34
s((g1444
tp8621
Vscoring
p8622
tp8623
g34
s((g40
tp8624
Vdancing
p8625
tp8626
g36
s((g790
tp8627
Vcontract
p8628
tp8629
g32
s((g244
tp8630
Vtalk
p8631
tp8632
g36
s((g36
tp8633
Vsince
p8634
tp8635
g244
s((g220
tp8636
Vtrade
p8637
tp8638
g36
s((g36
tp8639
Vthat
p8640
tp8641
g30
s((g48
tp8642
Vmatching
p8643
tp8644
g26
s((g1036
tp8645
Vfar
p8646
tp8647
g26
s((g284
tp8648
Vneither
p8649
tp8650
g1036
s((g244
tp8651
Vpop
p8652
tp8653
g36
s((g26
tp8654
Vdeep
p8655
tp8656
g26
s((g1444
tp8657
VElectric
p8658
tp8659
g40
s((g220
tp8660
Vfavor
p8661
tp8662
g32
s((g1041
tp8663
VGrand
p8664
tp8665
g109
s((g284
tp8666
Vgold
p8667
tp8668
g26
s((g220
tp8669
Vboost
p8670
tp8671
g32
s((g140
tp8672
Vescape
p8673
tp8674
g36
s((g34
tp8675
Vgood
p8676
tp8677
g26
s((g284
tp8678
VThat
p8679
tp8680
g140
s((g28
tp8681
Vworth
p8682
tp8683
g36
s((g36
tp8684
Vmajor
p8685
tp8686
g36
s((g48
tp8687
Vfine
p8688
tp8689
g26
s((g284
tp8690
Vout
p8691
tp8692
g244
s((g790
tp8693
Vopen
p8694
tp8695
g32
s((g149
tp8696
Vback
p8697
tp8698
g36
s((g284
tp8699
Vmuch
p8700
tp8701
g122
s((g127
tp8702
Vbreak
p8703
tp8704
g36
s((g122
tp8705
Vpressing
p8706
tp8707
g26
s((g244
tp8708
Vcommon
p8709
tp8710
g26
s((g790
tp8711
Vlead
p8712
tp8713
g32
s((g26
tp8714
Vhopes
p8715
tp8716
g73
s((g284
tp8717
Vtries
p8718
tp8719
g95
s((g127
tp8720
Voutright
p8721
tp8722
g26
s((g1934
tp8723
Vwork
p8724
tp8725
g32
s((g70
tp8726
Vreading
p8727
tp8728
g697
s((g36
tp8729
Vregister
p8730
tp8731
g36
s((g286
tp8732
Vworry
p8733
tp8734
g36
s((g284
tp8735
Vopposite
p8736
tp8737
g244
s((g58
tp8738
Vshowing
p8739
tp8740
g36
s((g73
tp8741
Voff
p8742
tp8743
g244
s((g790
tp8744
Vissue
p8745
tp8746
g32
s((g1934
tp8747
Vstand
p8748
tp8749
g32
s((g58
tp8750
Vhalf
p8751
tp8752
g36
s((g26
tp8753
Vfixing
p8754
tp8755
g36
s((g790
tp8756
Vslice
p8757
tp8758
g32
s((g1620
tp8759
Vcauses
p8760
tp8761
g95
s((g36
tp8762
Vtalks
p8763
tp8764
g95
s((g220
tp8765
Vconflict
p8766
tp8767
g32
s((g127
tp8768
Vride
p8769
tp8770
g36
s((g244
tp8771
Vpurchase
p8772
tp8773
g36
s((g790
tp8774
Vfield
p8775
tp8776
g32
s((g1036
tp8777
VFrench
p8778
tp8779
VNOUN
p8780
s((g244
tp8781
Vpublic
p8782
tp8783
g26
s((g98
tp8784
VS.
p8785
tp8786
g40
s((g790
tp8787
Vrescue
p8788
tp8789
g32
s((g284
tp8790
Voffering
p8791
tp8792
g34
s((g26
tp8793
Vkick
p8794
tp8795
g36
s((g244
tp8796
Vfirst
p8797
tp8798
g58
s((g127
tp8799
Vtotal
p8800
tp8801
g36
s((g6366
tp8802
Vhandling
p8803
tp8804
g36
s((g1444
tp8805
Vreturn
p8806
tp8807
g36
s((g73
tp8808
Vdaily
p8809
tp8810
g48
s((g6366
tp8811
VMost
p8812
tp8813
VADV
p8814
s((g220
tp8815
Vaid
p8816
tp8817
g36
s((g1762
tp8818
Vout
p8819
tp8820
g1082
s((g244
tp8821
Vunderground
p8822
tp8823
g26
s((g127
tp8824
Vwriting
p8825
tp8826
g36
s((g54
tp8827
Varound
p8828
tp8829
g48
s((g790
tp8830
Vreply
p8831
tp8832
g32
s((g664
tp8833
g2049
tp8834
g98
s((g220
tp8835
Vorder
p8836
tp8837
g32
s((g36
tp8838
Vaboard
p8839
tp8840
g48
s((g149
tp8841
Vvery
p8842
tp8843
g122
s((g36
tp8844
VHappy
p8845
tp8846
g664
s((g36
tp8847
Vbridge
p8848
tp8849
g36
s((g36
tp8850
Vthere
p8851
tp8852
g48
s((g122
tp8853
Vlong
p8854
tp8855
g48
s((g26
tp8856
Vassist
p8857
tp8858
g36
s((g1036
tp8859
Vthird
p8860
tp8861
g58
s((g127
tp8862
Vnext
p8863
tp8864
g286
s((g664
tp8865
Vheads
p8866
tp8867
g95
s((g30
tp8868
Vneither
p8869
tp8870
g5939
s((g790
tp8871
Vclear
p8872
tp8873
g32
s((g54
tp8874
Vshort
p8875
tp8876
g48
s((g127
tp8877
Voffer
p8878
tp8879
g36
s((g1620
tp8880
VGeneral
p8881
tp8882
g40
s((g1036
tp8883
Vfurther
p8884
tp8885
g1790
s((g127
tp8886
Vindividual
p8887
tp8888
g36
s((g6366
tp8889
Vhopes
p8890
tp8891
g95
s((g790
tp8892
Vspeed
p8893
tp8894
g32
s((g443
tp8895
Vhuman
p8896
tp8897
g36
s((g284
tp8898
Vfast
p8899
tp8900
g48
s((g3198
tp8901
Vmeeting
p8902
tp8903
g34
s((g48
tp8904
Vlimit
p8905
tp8906
g32
s((g244
tp8907
Vamounts
p8908
tp8909
g73
s((g284
tp8910
Voutside
p8911
tp8912
g36
s((g3198
tp8913
Vnext
p8914
tp8915
g286
s((g790
tp8916
Vstroke
p8917
tp8918
g32
s((g790
tp8919
Vpoint
p8920
tp8921
g32
s((g564
tp8922
Vwonder
p8923
tp8924
g36
s((g790
tp8925
Vcry
p8926
tp8927
g32
s((tVFall
p8928
tp8929
g36
s((g54
tp8930
Vthat
p8931
tp8932
g30
s((g790
tp8933
Vproject
p8934
tp8935
g32
s((g583
tp8936
Vbut
p8937
tp8938
g1036
s((g36
tp8939
Vsenior
p8940
tp8941
g36
s((g790
tp8942
Vencounter
p8943
tp8944
g32
s((g790
tp8945
Vcompromise
p8946
tp8947
g32
s((g790
tp8948
Vvote
p8949
tp8950
g32
s((g244
tp8951
Veven
p8952
tp8953
g122
s((g122
tp8954
Veven
p8955
tp8956
g48
s((g790
tp8957
Vlicense
p8958
tp8959
g32
s((g48
tp8960
Vthere
p8961
tp8962
g1978
s((g790
tp8963
Vbirdie
p8964
tp8965
g32
s((g284
tp8966
Vmeaning
p8967
tp8968
g34
s((g36
tp8969
Vlook
p8970
tp8971
g32
s((g109
tp8972
Vto
p8973
tp8974
g790
s((g68
tp8975
Vso
p8976
tp8977
g122
s((g127
tp8978
Vearlier
p8979
tp8980
g564
s((g244
tp8981
Vhelp
p8982
tp8983
g36
s((g127
tp8984
Valternative
p8985
tp8986
g36
s((g36
tp8987
Vclearing
p8988
tp8989
g36
s((g36
tp8990
Vpetitions
p8991
tp8992
g95
s((g127
tp8993
Vfeature
p8994
tp8995
g36
s((g36
tp8996
Vhousing
p8997
tp8998
g34
s((g127
tp8999
Voutside
p9000
tp9001
g26
s((g284
tp9002
Vopen
p9003
tp9004
g32
s((g1082
tp9005
Vclose
p9006
tp9007
g48
s((g36
tp9008
Vmaking
p9009
tp9010
g34
s((g790
tp9011
Vdrive
p9012
tp9013
g32
s((g1036
tp9014
Vback
p9015
tp9016
g48
s((g1934
tp9017
Vgraduate
p9018
tp9019
g32
s((g48
tp9020
Vrise
p9021
tp9022
g32
s((g26
tp9023
VChief
p9024
tp9025
VADJ
p9026
s((g122
tp9027
Vlight
p9028
tp9029
g26
s((g36
tp9030
Vsinging
p9031
tp9032
g34
s((g73
tp9033
Vloose
p9034
tp9035
g48
s((g48
tp9036
Vamount
p9037
tp9038
g32
s((g127
tp9039
VNorthwest
p9040
tp9041
g1444
s((g1444
tp9042
Vbeat
p9043
tp9044
g54
s((g284
tp9045
Vshot
p9046
tp9047
g54
s((g36
tp9048
Vback
p9049
tp9050
g48
s((g54
tp9051
Valong
p9052
tp9053
g48
s((g1052
tp9054
Vless
p9055
tp9056
g1790
s((g26
tp9057
Vadvance
p9058
tp9059
g36
s((g127
tp9060
Vdancing
p9061
tp9062
g36
s((g73
tp9063
Vcredit
p9064
tp9065
g32
ssb.